Archive member included because of file (symbol)

c:/devkitpro/libnds/lib\libnds9.a(keys.o)
                              main.o (scanKeys)
c:/devkitpro/libnds/lib\libnds9.a(video.o)
                              cglscreenmain.o (vramSetMainBanks)
c:/devkitpro/libnds/lib\libnds9.a(card.o)
                              dsCard.o (cardWriteCommand)
c:/devkitpro/libnds/lib\libnds9.a(gbfs.o)
                              filesys.o (find_first_gbfs_file)
c:/devkitpro/libnds/lib\libnds9.a(interrupts.o)
                              strpcm.o (irqSet)
c:/devkitpro/libnds/lib\libnds9.a(cache.o)
                              strpcm.o (DC_FlushAll)
c:/devkitpro/libnds/lib\libnds9.a(biosCalls.o)
                              plug_ndsrom.o (swiSoftReset)
c:/devkitpro/libnds/lib\libnds9.a(division.o)
                              main.o (__divsi3)
c:/devkitpro/libnds/lib\libnds9.a(interruptDispatcher.o)
                              c:/devkitpro/libnds/lib\libnds9.a(interrupts.o) (IntrMain)
c:/devkitpro/devkitarm/bin/../lib/gcc/arm-elf/4.0.2/../../../../arm-elf/lib/interwork\libstdc++.a(del_op.o)
                              cstream.o (operator delete(void*))
c:/devkitpro/devkitarm/bin/../lib/gcc/arm-elf/4.0.2/../../../../arm-elf/lib/interwork\libstdc++.a(del_opv.o)
                              ../build/libgme/Effects_Buffer.o (operator delete[](void*))
c:/devkitpro/devkitarm/bin/../lib/gcc/arm-elf/4.0.2/../../../../arm-elf/lib/interwork\libstdc++.a(eh_personality.o)
                              cstream_fs.o (__gxx_personality_sj0)
c:/devkitpro/devkitarm/bin/../lib/gcc/arm-elf/4.0.2/../../../../arm-elf/lib/interwork\libstdc++.a(eh_terminate.o)
                              c:/devkitpro/devkitarm/bin/../lib/gcc/arm-elf/4.0.2/../../../../arm-elf/lib/interwork\libstdc++.a(eh_personality.o) (__cxxabiv1::__terminate(void (*)()))
c:/devkitpro/devkitarm/bin/../lib/gcc/arm-elf/4.0.2/../../../../arm-elf/lib/interwork\libstdc++.a(eh_term_handler.o)
                              c:/devkitpro/devkitarm/bin/../lib/gcc/arm-elf/4.0.2/../../../../arm-elf/lib/interwork\libstdc++.a(eh_terminate.o) (__cxxabiv1::__terminate_handler)
c:/devkitpro/devkitarm/bin/../lib/gcc/arm-elf/4.0.2/../../../../arm-elf/lib/interwork\libstdc++.a(eh_throw.o)
                              c:/devkitpro/devkitarm/bin/../lib/gcc/arm-elf/4.0.2/../../../../arm-elf/lib/interwork\libstdc++.a(eh_personality.o) (__cxa_throw)
c:/devkitpro/devkitarm/bin/../lib/gcc/arm-elf/4.0.2/../../../../arm-elf/lib/interwork\libstdc++.a(eh_unex_handler.o)
                              c:/devkitpro/devkitarm/bin/../lib/gcc/arm-elf/4.0.2/../../../../arm-elf/lib/interwork\libstdc++.a(eh_terminate.o) (__cxxabiv1::__unexpected_handler)
c:/devkitpro/devkitarm/bin/../lib/gcc/arm-elf/4.0.2/../../../../arm-elf/lib/interwork\libstdc++.a(new_op.o)
                              main.o (operator new(unsigned long))
c:/devkitpro/devkitarm/bin/../lib/gcc/arm-elf/4.0.2/../../../../arm-elf/lib/interwork\libstdc++.a(new_opv.o)
                              ../build/libgme/Effects_Buffer.o (operator new[](unsigned long))
c:/devkitpro/devkitarm/bin/../lib/gcc/arm-elf/4.0.2/../../../../arm-elf/lib/interwork\libstdc++.a(pure.o)
                              ../build/libgme/Classic_Emu.o (__cxa_pure_virtual)
c:/devkitpro/devkitarm/bin/../lib/gcc/arm-elf/4.0.2/../../../../arm-elf/lib/interwork\libstdc++.a(tinfo.o)
                              cstream.o (vtable for __cxxabiv1::__class_type_info)
c:/devkitpro/devkitarm/bin/../lib/gcc/arm-elf/4.0.2/../../../../arm-elf/lib/interwork\libstdc++.a(vterminate.o)
                              c:/devkitpro/devkitarm/bin/../lib/gcc/arm-elf/4.0.2/../../../../arm-elf/lib/interwork\libstdc++.a(eh_term_handler.o) (__gnu_cxx::__verbose_terminate_handler())
c:/devkitpro/devkitarm/bin/../lib/gcc/arm-elf/4.0.2/../../../../arm-elf/lib/interwork\libstdc++.a(cp-demangle.o)
                              c:/devkitpro/devkitarm/bin/../lib/gcc/arm-elf/4.0.2/../../../../arm-elf/lib/interwork\libstdc++.a(vterminate.o) (__cxa_demangle)
c:/devkitpro/devkitarm/bin/../lib/gcc/arm-elf/4.0.2/../../../../arm-elf/lib/interwork\libstdc++.a(eh_alloc.o)
                              c:/devkitpro/devkitarm/bin/../lib/gcc/arm-elf/4.0.2/../../../../arm-elf/lib/interwork\libstdc++.a(eh_personality.o) (__cxa_allocate_exception)
c:/devkitpro/devkitarm/bin/../lib/gcc/arm-elf/4.0.2/../../../../arm-elf/lib/interwork\libstdc++.a(eh_catch.o)
                              c:/devkitpro/devkitarm/bin/../lib/gcc/arm-elf/4.0.2/../../../../arm-elf/lib/interwork\libstdc++.a(eh_personality.o) (__cxa_begin_catch)
c:/devkitpro/devkitarm/bin/../lib/gcc/arm-elf/4.0.2/../../../../arm-elf/lib/interwork\libstdc++.a(eh_exception.o)
                              c:/devkitpro/devkitarm/bin/../lib/gcc/arm-elf/4.0.2/../../../../arm-elf/lib/interwork\libstdc++.a(tinfo.o) (typeinfo for std::exception)
c:/devkitpro/devkitarm/bin/../lib/gcc/arm-elf/4.0.2/../../../../arm-elf/lib/interwork\libstdc++.a(eh_globals.o)
                              c:/devkitpro/devkitarm/bin/../lib/gcc/arm-elf/4.0.2/../../../../arm-elf/lib/interwork\libstdc++.a(eh_personality.o) (__cxa_get_globals_fast)
c:/devkitpro/devkitarm/bin/../lib/gcc/arm-elf/4.0.2/../../../../arm-elf/lib/interwork\libstdc++.a(eh_type.o)
                              c:/devkitpro/devkitarm/bin/../lib/gcc/arm-elf/4.0.2/../../../../arm-elf/lib/interwork\libstdc++.a(vterminate.o) (__cxa_current_exception_type)
c:/devkitpro/devkitarm/bin/../lib/gcc/arm-elf/4.0.2/../../../../arm-elf/lib/interwork\libstdc++.a(new_handler.o)
                              c:/devkitpro/devkitarm/bin/../lib/gcc/arm-elf/4.0.2/../../../../arm-elf/lib/interwork\libstdc++.a(new_op.o) (typeinfo for std::bad_alloc)
c:/devkitpro/devkitarm/bin/../lib/gcc/arm-elf/4.0.2/../../../../arm-elf/lib/interwork\libm.a(s_cos.o)
                              ../build/libgme/Blip_Buffer.o (cos)
c:/devkitpro/devkitarm/bin/../lib/gcc/arm-elf/4.0.2/../../../../arm-elf/lib/interwork\libm.a(s_fabs.o)
                              dll.o (fabs)
c:/devkitpro/devkitarm/bin/../lib/gcc/arm-elf/4.0.2/../../../../arm-elf/lib/interwork\libm.a(s_floor.o)
                              ../build/libgme/Blip_Buffer.o (floor)
c:/devkitpro/devkitarm/bin/../lib/gcc/arm-elf/4.0.2/../../../../arm-elf/lib/interwork\libm.a(sf_fabs.o)
                              dll.o (fabsf)
c:/devkitpro/devkitarm/bin/../lib/gcc/arm-elf/4.0.2/../../../../arm-elf/lib/interwork\libm.a(w_fmod.o)
                              ../build/libgme/Fir_Resampler.o (fmod)
c:/devkitpro/devkitarm/bin/../lib/gcc/arm-elf/4.0.2/../../../../arm-elf/lib/interwork\libm.a(w_pow.o)
                              ../build/libgme/Blip_Buffer.o (pow)
c:/devkitpro/devkitarm/bin/../lib/gcc/arm-elf/4.0.2/../../../../arm-elf/lib/interwork\libm.a(e_fmod.o)
                              c:/devkitpro/devkitarm/bin/../lib/gcc/arm-elf/4.0.2/../../../../arm-elf/lib/interwork\libm.a(w_fmod.o) (__ieee754_fmod)
c:/devkitpro/devkitarm/bin/../lib/gcc/arm-elf/4.0.2/../../../../arm-elf/lib/interwork\libm.a(e_pow.o)
                              c:/devkitpro/devkitarm/bin/../lib/gcc/arm-elf/4.0.2/../../../../arm-elf/lib/interwork\libm.a(w_pow.o) (__ieee754_pow)
c:/devkitpro/devkitarm/bin/../lib/gcc/arm-elf/4.0.2/../../../../arm-elf/lib/interwork\libm.a(e_rem_pio2.o)
                              c:/devkitpro/devkitarm/bin/../lib/gcc/arm-elf/4.0.2/../../../../arm-elf/lib/interwork\libm.a(s_cos.o) (__ieee754_rem_pio2)
c:/devkitpro/devkitarm/bin/../lib/gcc/arm-elf/4.0.2/../../../../arm-elf/lib/interwork\libm.a(e_sqrt.o)
                              c:/devkitpro/devkitarm/bin/../lib/gcc/arm-elf/4.0.2/../../../../arm-elf/lib/interwork\libm.a(e_pow.o) (__ieee754_sqrt)
c:/devkitpro/devkitarm/bin/../lib/gcc/arm-elf/4.0.2/../../../../arm-elf/lib/interwork\libm.a(k_cos.o)
                              c:/devkitpro/devkitarm/bin/../lib/gcc/arm-elf/4.0.2/../../../../arm-elf/lib/interwork\libm.a(s_cos.o) (__kernel_cos)
c:/devkitpro/devkitarm/bin/../lib/gcc/arm-elf/4.0.2/../../../../arm-elf/lib/interwork\libm.a(k_rem_pio2.o)
                              c:/devkitpro/devkitarm/bin/../lib/gcc/arm-elf/4.0.2/../../../../arm-elf/lib/interwork\libm.a(e_rem_pio2.o) (__kernel_rem_pio2)
c:/devkitpro/devkitarm/bin/../lib/gcc/arm-elf/4.0.2/../../../../arm-elf/lib/interwork\libm.a(k_sin.o)
                              c:/devkitpro/devkitarm/bin/../lib/gcc/arm-elf/4.0.2/../../../../arm-elf/lib/interwork\libm.a(s_cos.o) (__kernel_sin)
c:/devkitpro/devkitarm/bin/../lib/gcc/arm-elf/4.0.2/../../../../arm-elf/lib/interwork\libm.a(s_finite.o)
                              c:/devkitpro/devkitarm/bin/../lib/gcc/arm-elf/4.0.2/../../../../arm-elf/lib/interwork\libm.a(w_pow.o) (finite)
c:/devkitpro/devkitarm/bin/../lib/gcc/arm-elf/4.0.2/../../../../arm-elf/lib/interwork\libm.a(s_infconst.o)
                              c:/devkitpro/devkitarm/bin/../lib/gcc/arm-elf/4.0.2/../../../../arm-elf/lib/interwork\libm.a(w_pow.o) (__infinity)
c:/devkitpro/devkitarm/bin/../lib/gcc/arm-elf/4.0.2/../../../../arm-elf/lib/interwork\libm.a(s_isnan.o)
                              c:/devkitpro/devkitarm/bin/../lib/gcc/arm-elf/4.0.2/../../../../arm-elf/lib/interwork\libm.a(w_fmod.o) (isnan)
c:/devkitpro/devkitarm/bin/../lib/gcc/arm-elf/4.0.2/../../../../arm-elf/lib/interwork\libm.a(s_lib_ver.o)
                              c:/devkitpro/devkitarm/bin/../lib/gcc/arm-elf/4.0.2/../../../../arm-elf/lib/interwork\libm.a(w_fmod.o) (__fdlib_version)
c:/devkitpro/devkitarm/bin/../lib/gcc/arm-elf/4.0.2/../../../../arm-elf/lib/interwork\libm.a(s_matherr.o)
                              c:/devkitpro/devkitarm/bin/../lib/gcc/arm-elf/4.0.2/../../../../arm-elf/lib/interwork\libm.a(w_fmod.o) (matherr)
c:/devkitpro/devkitarm/bin/../lib/gcc/arm-elf/4.0.2/../../../../arm-elf/lib/interwork\libm.a(s_rint.o)
                              c:/devkitpro/devkitarm/bin/../lib/gcc/arm-elf/4.0.2/../../../../arm-elf/lib/interwork\libm.a(w_pow.o) (rint)
c:/devkitpro/devkitarm/bin/../lib/gcc/arm-elf/4.0.2/../../../../arm-elf/lib/interwork\libm.a(s_scalbn.o)
                              c:/devkitpro/devkitarm/bin/../lib/gcc/arm-elf/4.0.2/../../../../arm-elf/lib/interwork\libm.a(e_pow.o) (scalbn)
c:/devkitpro/devkitarm/bin/../lib/gcc/arm-elf/4.0.2/../../../../arm-elf/lib/interwork\libm.a(s_copysign.o)
                              c:/devkitpro/devkitarm/bin/../lib/gcc/arm-elf/4.0.2/../../../../arm-elf/lib/interwork\libm.a(s_scalbn.o) (copysign)
c:/devkitpro/devkitarm/bin/../lib/gcc/arm-elf/4.0.2/interwork\libgcc.a(_udivsi3.o)
                              main.o (__udivsi3)
c:/devkitpro/devkitarm/bin/../lib/gcc/arm-elf/4.0.2/interwork\libgcc.a(_umodsi3.o)
                              plug_text.o (__umodsi3)
c:/devkitpro/devkitarm/bin/../lib/gcc/arm-elf/4.0.2/interwork\libgcc.a(_dvmd_tls.o)
                              c:/devkitpro/devkitarm/bin/../lib/gcc/arm-elf/4.0.2/interwork\libgcc.a(_udivsi3.o) (__div0)
c:/devkitpro/devkitarm/bin/../lib/gcc/arm-elf/4.0.2/interwork\libgcc.a(_call_via_rX.o)
                              c:/devkitpro/devkitarm/bin/../lib/gcc/arm-elf/4.0.2/../../../../arm-elf/lib/interwork/ds_arm9_crt0.o (_call_via_r3)
c:/devkitpro/devkitarm/bin/../lib/gcc/arm-elf/4.0.2/interwork\libgcc.a(_addsubdf3.o)
                              ../build/libgme/Blip_Buffer.o (__subdf3)
c:/devkitpro/devkitarm/bin/../lib/gcc/arm-elf/4.0.2/interwork\libgcc.a(_muldivdf3.o)
                              _consoleWriteLog.o (__muldf3)
c:/devkitpro/devkitarm/bin/../lib/gcc/arm-elf/4.0.2/interwork\libgcc.a(_cmpdf2.o)
                              ../build/libgme/Blip_Buffer.o (__gtdf2)
c:/devkitpro/devkitarm/bin/../lib/gcc/arm-elf/4.0.2/interwork\libgcc.a(_fixdfsi.o)
                              main.o (__fixdfsi)
c:/devkitpro/devkitarm/bin/../lib/gcc/arm-elf/4.0.2/interwork\libgcc.a(_fixunsdfsi.o)
                              _consoleWriteLog.o (__fixunsdfsi)
c:/devkitpro/devkitarm/bin/../lib/gcc/arm-elf/4.0.2/interwork\libgcc.a(_truncdfsf2.o)
                              ../build/libgme/Blip_Buffer.o (__truncdfsf2)
c:/devkitpro/devkitarm/bin/../lib/gcc/arm-elf/4.0.2/interwork\libgcc.a(_addsubsf3.o)
                              main.o (__subsf3)
c:/devkitpro/devkitarm/bin/../lib/gcc/arm-elf/4.0.2/interwork\libgcc.a(_muldivsf3.o)
                              imgcalc.o (__mulsf3)
c:/devkitpro/devkitarm/bin/../lib/gcc/arm-elf/4.0.2/interwork\libgcc.a(_cmpsf2.o)
                              main.o (__gtsf2)
c:/devkitpro/devkitarm/bin/../lib/gcc/arm-elf/4.0.2/interwork\libgcc.a(_fixsfsi.o)
                              main.o (__fixsfsi)
c:/devkitpro/devkitarm/bin/../lib/gcc/arm-elf/4.0.2/interwork\libgcc.a(_fixunssfsi.o)
                              main.o (__fixunssfsi)
c:/devkitpro/devkitarm/bin/../lib/gcc/arm-elf/4.0.2/interwork\libgcc.a(_divdi3.o)
                              clibdpg.o (__divdi3)
c:/devkitpro/devkitarm/bin/../lib/gcc/arm-elf/4.0.2/interwork\libgcc.a(_udivdi3.o)
                              clibdpg.o (__udivdi3)
c:/devkitpro/devkitarm/bin/../lib/gcc/arm-elf/4.0.2/interwork\libgcc.a(unwind-sjlj.o)
                              cstream_fs.o (_Unwind_SjLj_Register)
c:/devkitpro/devkitarm/bin/../lib/gcc/arm-elf/4.0.2/interwork\libgcc.a(_clz.o)
                              c:/devkitpro/devkitarm/bin/../lib/gcc/arm-elf/4.0.2/interwork\libgcc.a(_divdi3.o) (__clz_tab)
c:/devkitpro/devkitarm/bin/../lib/gcc/arm-elf/4.0.2/../../../../arm-elf/lib/interwork\libg.a(abs.o)
                              dll.o (abs)
c:/devkitpro/devkitarm/bin/../lib/gcc/arm-elf/4.0.2/../../../../arm-elf/lib/interwork\libg.a(assert.o)
                              ../build/libgme/Blip_Buffer.o (__assert)
c:/devkitpro/devkitarm/bin/../lib/gcc/arm-elf/4.0.2/../../../../arm-elf/lib/interwork\libg.a(atof.o)
                              dll.o (atof)
c:/devkitpro/devkitarm/bin/../lib/gcc/arm-elf/4.0.2/../../../../arm-elf/lib/interwork\libg.a(atoi.o)
                              dll.o (atoi)
c:/devkitpro/devkitarm/bin/../lib/gcc/arm-elf/4.0.2/../../../../arm-elf/lib/interwork\libg.a(atol.o)
                              dll.o (atol)
c:/devkitpro/devkitarm/bin/../lib/gcc/arm-elf/4.0.2/../../../../arm-elf/lib/interwork\libg.a(atoll.o)
                              dll.o (atoll)
c:/devkitpro/devkitarm/bin/../lib/gcc/arm-elf/4.0.2/../../../../arm-elf/lib/interwork\libg.a(bsearch.o)
                              c:/devkitpro/libnds/lib\libnds9.a(gbfs.o) (bsearch)
c:/devkitpro/devkitarm/bin/../lib/gcc/arm-elf/4.0.2/../../../../arm-elf/lib/interwork\libg.a(calloc.o)
                              dll.o (calloc)
c:/devkitpro/devkitarm/bin/../lib/gcc/arm-elf/4.0.2/../../../../arm-elf/lib/interwork\libg.a(callocr.o)
                              c:/devkitpro/devkitarm/bin/../lib/gcc/arm-elf/4.0.2/../../../../arm-elf/lib/interwork\libg.a(calloc.o) (_calloc_r)
c:/devkitpro/devkitarm/bin/../lib/gcc/arm-elf/4.0.2/../../../../arm-elf/lib/interwork\libg.a(ctype_.o)
                              ../build/gba_nds_fat_2006-02-09_unicode_M3SD_ReadAlignDetect/misc.o (_ctype_)
c:/devkitpro/devkitarm/bin/../lib/gcc/arm-elf/4.0.2/../../../../arm-elf/lib/interwork\libg.a(errno.o)
                              c:/devkitpro/devkitarm/bin/../lib/gcc/arm-elf/4.0.2/../../../../arm-elf/lib/interwork\libm.a(w_fmod.o) (__errno)
c:/devkitpro/devkitarm/bin/../lib/gcc/arm-elf/4.0.2/../../../../arm-elf/lib/interwork\libg.a(fclose.o)
                              ../build/libgme/abstract_file.o (fclose)
c:/devkitpro/devkitarm/bin/../lib/gcc/arm-elf/4.0.2/../../../../arm-elf/lib/interwork\libg.a(fflush.o)
                              c:/devkitpro/devkitarm/bin/../lib/gcc/arm-elf/4.0.2/../../../../arm-elf/lib/interwork\libg.a(fclose.o) (fflush)
c:/devkitpro/devkitarm/bin/../lib/gcc/arm-elf/4.0.2/../../../../arm-elf/lib/interwork\libg.a(findfp.o)
                              c:/devkitpro/devkitarm/bin/../lib/gcc/arm-elf/4.0.2/../../../../arm-elf/lib/interwork\libg.a(fclose.o) (__sfp_lock_acquire)
c:/devkitpro/devkitarm/bin/../lib/gcc/arm-elf/4.0.2/../../../../arm-elf/lib/interwork\libg.a(fiprintf.o)
                              c:/devkitpro/devkitarm/bin/../lib/gcc/arm-elf/4.0.2/../../../../arm-elf/lib/interwork\libg.a(assert.o) (fiprintf)
c:/devkitpro/devkitarm/bin/../lib/gcc/arm-elf/4.0.2/../../../../arm-elf/lib/interwork\libg.a(fopen.o)
                              ../build/libgme/abstract_file.o (fopen)
c:/devkitpro/devkitarm/bin/../lib/gcc/arm-elf/4.0.2/../../../../arm-elf/lib/interwork\libg.a(fputc.o)
                              c:/devkitpro/devkitarm/bin/../lib/gcc/arm-elf/4.0.2/../../../../arm-elf/lib/interwork\libstdc++.a(vterminate.o) (fputc)
c:/devkitpro/devkitarm/bin/../lib/gcc/arm-elf/4.0.2/../../../../arm-elf/lib/interwork\libg.a(fputs.o)
                              c:/devkitpro/devkitarm/bin/../lib/gcc/arm-elf/4.0.2/../../../../arm-elf/lib/interwork\libstdc++.a(vterminate.o) (fputs)
c:/devkitpro/devkitarm/bin/../lib/gcc/arm-elf/4.0.2/../../../../arm-elf/lib/interwork\libg.a(fread.o)
                              ../build/libgme/abstract_file.o (fread)
c:/devkitpro/devkitarm/bin/../lib/gcc/arm-elf/4.0.2/../../../../arm-elf/lib/interwork\libg.a(freer.o)
                              c:/devkitpro/devkitarm/bin/../lib/gcc/arm-elf/4.0.2/../../../../arm-elf/lib/interwork\libg.a(fclose.o) (_free_r)
c:/devkitpro/devkitarm/bin/../lib/gcc/arm-elf/4.0.2/../../../../arm-elf/lib/interwork\libg.a(fseek.o)
                              c:/devkitpro/devkitarm/bin/../lib/gcc/arm-elf/4.0.2/../../../../arm-elf/lib/interwork\libg.a(fopen.o) (_fseek_r)
c:/devkitpro/devkitarm/bin/../lib/gcc/arm-elf/4.0.2/../../../../arm-elf/lib/interwork\libg.a(fstatr.o)
                              c:/devkitpro/devkitarm/bin/../lib/gcc/arm-elf/4.0.2/../../../../arm-elf/lib/interwork\libg.a(fseek.o) (_fstat_r)
c:/devkitpro/devkitarm/bin/../lib/gcc/arm-elf/4.0.2/../../../../arm-elf/lib/interwork\libg.a(ftell.o)
                              ../build/libgme/abstract_file.o (ftell)
c:/devkitpro/devkitarm/bin/../lib/gcc/arm-elf/4.0.2/../../../../arm-elf/lib/interwork\libg.a(fvwrite.o)
                              c:/devkitpro/devkitarm/bin/../lib/gcc/arm-elf/4.0.2/../../../../arm-elf/lib/interwork\libg.a(fputs.o) (__sfvwrite)
c:/devkitpro/devkitarm/bin/../lib/gcc/arm-elf/4.0.2/../../../../arm-elf/lib/interwork\libg.a(fwalk.o)
                              c:/devkitpro/devkitarm/bin/../lib/gcc/arm-elf/4.0.2/../../../../arm-elf/lib/interwork\libg.a(fflush.o) (_fwalk)
c:/devkitpro/devkitarm/bin/../lib/gcc/arm-elf/4.0.2/../../../../arm-elf/lib/interwork\libg.a(fwrite.o)
                              ../build/libgme/abstract_file.o (fwrite)
c:/devkitpro/devkitarm/bin/../lib/gcc/arm-elf/4.0.2/../../../../arm-elf/lib/interwork\libg.a(impure.o)
                              c:/devkitpro/devkitarm/bin/../lib/gcc/arm-elf/4.0.2/../../../../arm-elf/lib/interwork\libg.a(fflush.o) (_global_impure_ptr)
c:/devkitpro/devkitarm/bin/../lib/gcc/arm-elf/4.0.2/../../../../arm-elf/lib/interwork\libg.a(labs.o)
                              dll.o (labs)
c:/devkitpro/devkitarm/bin/../lib/gcc/arm-elf/4.0.2/../../../../arm-elf/lib/interwork\libg.a(llabs.o)
                              dll.o (llabs)
c:/devkitpro/devkitarm/bin/../lib/gcc/arm-elf/4.0.2/../../../../arm-elf/lib/interwork\libg.a(makebuf.o)
                              c:/devkitpro/devkitarm/bin/../lib/gcc/arm-elf/4.0.2/../../../../arm-elf/lib/interwork\libg.a(fseek.o) (__smakebuf)
c:/devkitpro/devkitarm/bin/../lib/gcc/arm-elf/4.0.2/../../../../arm-elf/lib/interwork\libg.a(malloc.o)
                              dll.o (malloc)
c:/devkitpro/devkitarm/bin/../lib/gcc/arm-elf/4.0.2/../../../../arm-elf/lib/interwork\libg.a(mallocr.o)
                              c:/devkitpro/devkitarm/bin/../lib/gcc/arm-elf/4.0.2/../../../../arm-elf/lib/interwork\libg.a(freer.o) (__malloc_current_mallinfo)
c:/devkitpro/devkitarm/bin/../lib/gcc/arm-elf/4.0.2/../../../../arm-elf/lib/interwork\libg.a(memchr.o)
                              dll.o (memchr)
c:/devkitpro/devkitarm/bin/../lib/gcc/arm-elf/4.0.2/../../../../arm-elf/lib/interwork\libg.a(memcmp.o)
                              dll.o (memcmp)
c:/devkitpro/devkitarm/bin/../lib/gcc/arm-elf/4.0.2/../../../../arm-elf/lib/interwork\libg.a(memcpy.o)
                              cstream.o (memcpy)
c:/devkitpro/devkitarm/bin/../lib/gcc/arm-elf/4.0.2/../../../../arm-elf/lib/interwork\libg.a(memmove.o)
                              dll.o (memmove)
c:/devkitpro/devkitarm/bin/../lib/gcc/arm-elf/4.0.2/../../../../arm-elf/lib/interwork\libg.a(memset.o)
                              dll.o (memset)
c:/devkitpro/devkitarm/bin/../lib/gcc/arm-elf/4.0.2/../../../../arm-elf/lib/interwork\libg.a(mlock.o)
                              c:/devkitpro/devkitarm/bin/../lib/gcc/arm-elf/4.0.2/../../../../arm-elf/lib/interwork\libg.a(freer.o) (__malloc_lock)
c:/devkitpro/devkitarm/bin/../lib/gcc/arm-elf/4.0.2/../../../../arm-elf/lib/interwork\libg.a(openr.o)
                              c:/devkitpro/devkitarm/bin/../lib/gcc/arm-elf/4.0.2/../../../../arm-elf/lib/interwork\libg.a(fopen.o) (_open_r)
c:/devkitpro/devkitarm/bin/../lib/gcc/arm-elf/4.0.2/../../../../arm-elf/lib/interwork\libg.a(printf.o)
                              mwin.o (printf)
c:/devkitpro/devkitarm/bin/../lib/gcc/arm-elf/4.0.2/../../../../arm-elf/lib/interwork\libg.a(rand.o)
                              main.o (srand)
c:/devkitpro/devkitarm/bin/../lib/gcc/arm-elf/4.0.2/../../../../arm-elf/lib/interwork\libg.a(realloc.o)
                              dll.o (realloc)
c:/devkitpro/devkitarm/bin/../lib/gcc/arm-elf/4.0.2/../../../../arm-elf/lib/interwork\libg.a(reallocr.o)
                              c:/devkitpro/devkitarm/bin/../lib/gcc/arm-elf/4.0.2/../../../../arm-elf/lib/interwork\libg.a(fvwrite.o) (_realloc_r)
c:/devkitpro/devkitarm/bin/../lib/gcc/arm-elf/4.0.2/../../../../arm-elf/lib/interwork\libg.a(reent.o)
                              c:/devkitpro/devkitarm/bin/../lib/gcc/arm-elf/4.0.2/../../../../arm-elf/lib/interwork\libg.a(fstatr.o) (errno)
c:/devkitpro/devkitarm/bin/../lib/gcc/arm-elf/4.0.2/../../../../arm-elf/lib/interwork\libg.a(refill.o)
                              c:/devkitpro/devkitarm/bin/../lib/gcc/arm-elf/4.0.2/../../../../arm-elf/lib/interwork\libg.a(fread.o) (__srefill)
c:/devkitpro/devkitarm/bin/../lib/gcc/arm-elf/4.0.2/../../../../arm-elf/lib/interwork\libg.a(sbrkr.o)
                              c:/devkitpro/devkitarm/bin/../lib/gcc/arm-elf/4.0.2/../../../../arm-elf/lib/interwork\libg.a(freer.o) (_sbrk_r)
c:/devkitpro/devkitarm/bin/../lib/gcc/arm-elf/4.0.2/../../../../arm-elf/lib/interwork\libg.a(snprintf.o)
                              directdisk.o (snprintf)
c:/devkitpro/devkitarm/bin/../lib/gcc/arm-elf/4.0.2/../../../../arm-elf/lib/interwork\libg.a(sprintf.o)
                              dll.o (sprintf)
c:/devkitpro/devkitarm/bin/../lib/gcc/arm-elf/4.0.2/../../../../arm-elf/lib/interwork\libg.a(stdio.o)
                              c:/devkitpro/devkitarm/bin/../lib/gcc/arm-elf/4.0.2/../../../../arm-elf/lib/interwork\libg.a(findfp.o) (__sread)
c:/devkitpro/devkitarm/bin/../lib/gcc/arm-elf/4.0.2/../../../../arm-elf/lib/interwork\libg.a(strcat.o)
                              dll.o (strcat)
c:/devkitpro/devkitarm/bin/../lib/gcc/arm-elf/4.0.2/../../../../arm-elf/lib/interwork\libg.a(strchr.o)
                              dll.o (strchr)
c:/devkitpro/devkitarm/bin/../lib/gcc/arm-elf/4.0.2/../../../../arm-elf/lib/interwork\libg.a(strcmp.o)
                              dll.o (strcmp)
c:/devkitpro/devkitarm/bin/../lib/gcc/arm-elf/4.0.2/../../../../arm-elf/lib/interwork\libg.a(strcoll.o)
                              dll.o (strcoll)
c:/devkitpro/devkitarm/bin/../lib/gcc/arm-elf/4.0.2/../../../../arm-elf/lib/interwork\libg.a(strcpy.o)
                              dll.o (strcpy)
c:/devkitpro/devkitarm/bin/../lib/gcc/arm-elf/4.0.2/../../../../arm-elf/lib/interwork\libg.a(strcspn.o)
                              dll.o (strcspn)
c:/devkitpro/devkitarm/bin/../lib/gcc/arm-elf/4.0.2/../../../../arm-elf/lib/interwork\libg.a(strdup.o)
                              dll.o (strdup)
c:/devkitpro/devkitarm/bin/../lib/gcc/arm-elf/4.0.2/../../../../arm-elf/lib/interwork\libg.a(strdup_r.o)
                              c:/devkitpro/devkitarm/bin/../lib/gcc/arm-elf/4.0.2/../../../../arm-elf/lib/interwork\libg.a(strdup.o) (_strdup_r)
c:/devkitpro/devkitarm/bin/../lib/gcc/arm-elf/4.0.2/../../../../arm-elf/lib/interwork\libg.a(strlen.o)
                              VRAMTool.o (strlen)
c:/devkitpro/devkitarm/bin/../lib/gcc/arm-elf/4.0.2/../../../../arm-elf/lib/interwork\libg.a(strncat.o)
                              dll.o (strncat)
c:/devkitpro/devkitarm/bin/../lib/gcc/arm-elf/4.0.2/../../../../arm-elf/lib/interwork\libg.a(strncmp.o)
                              directdisk.o (strncmp)
c:/devkitpro/devkitarm/bin/../lib/gcc/arm-elf/4.0.2/../../../../arm-elf/lib/interwork\libg.a(strncpy.o)
                              dll.o (strncpy)
c:/devkitpro/devkitarm/bin/../lib/gcc/arm-elf/4.0.2/../../../../arm-elf/lib/interwork\libg.a(strpbrk.o)
                              dll.o (strpbrk)
c:/devkitpro/devkitarm/bin/../lib/gcc/arm-elf/4.0.2/../../../../arm-elf/lib/interwork\libg.a(strrchr.o)
                              dll.o (strrchr)
c:/devkitpro/devkitarm/bin/../lib/gcc/arm-elf/4.0.2/../../../../arm-elf/lib/interwork\libg.a(strsep.o)
                              dll.o (strsep)
c:/devkitpro/devkitarm/bin/../lib/gcc/arm-elf/4.0.2/../../../../arm-elf/lib/interwork\libg.a(strspn.o)
                              dll.o (strspn)
c:/devkitpro/devkitarm/bin/../lib/gcc/arm-elf/4.0.2/../../../../arm-elf/lib/interwork\libg.a(strstr.o)
                              dll.o (strstr)
c:/devkitpro/devkitarm/bin/../lib/gcc/arm-elf/4.0.2/../../../../arm-elf/lib/interwork\libg.a(strtod.o)
                              c:/devkitpro/devkitarm/bin/../lib/gcc/arm-elf/4.0.2/../../../../arm-elf/lib/interwork\libg.a(atof.o) (strtod)
c:/devkitpro/devkitarm/bin/../lib/gcc/arm-elf/4.0.2/../../../../arm-elf/lib/interwork\libg.a(strtok.o)
                              dll.o (strtok)
c:/devkitpro/devkitarm/bin/../lib/gcc/arm-elf/4.0.2/../../../../arm-elf/lib/interwork\libg.a(strtok_r.o)
                              c:/devkitpro/devkitarm/bin/../lib/gcc/arm-elf/4.0.2/../../../../arm-elf/lib/interwork\libg.a(strsep.o) (__strtok_r)
c:/devkitpro/devkitarm/bin/../lib/gcc/arm-elf/4.0.2/../../../../arm-elf/lib/interwork\libg.a(strtol.o)
                              c:/devkitpro/devkitarm/bin/../lib/gcc/arm-elf/4.0.2/../../../../arm-elf/lib/interwork\libg.a(atoi.o) (_strtol_r)
c:/devkitpro/devkitarm/bin/../lib/gcc/arm-elf/4.0.2/../../../../arm-elf/lib/interwork\libg.a(strtoll.o)
                              c:/devkitpro/devkitarm/bin/../lib/gcc/arm-elf/4.0.2/../../../../arm-elf/lib/interwork\libg.a(atoll.o) (strtoll)
c:/devkitpro/devkitarm/bin/../lib/gcc/arm-elf/4.0.2/../../../../arm-elf/lib/interwork\libg.a(strtoll_r.o)
                              c:/devkitpro/devkitarm/bin/../lib/gcc/arm-elf/4.0.2/../../../../arm-elf/lib/interwork\libg.a(atoll.o) (_strtoll_r)
c:/devkitpro/devkitarm/bin/../lib/gcc/arm-elf/4.0.2/../../../../arm-elf/lib/interwork\libg.a(strxfrm.o)
                              dll.o (strxfrm)
c:/devkitpro/devkitarm/bin/../lib/gcc/arm-elf/4.0.2/../../../../arm-elf/lib/interwork\libg.a(syswrite.o)
                              c:/devkitpro/devkitarm/bin/../lib/gcc/arm-elf/4.0.2/../../../../arm-elf/lib/interwork\libstdc++.a(pure.o) (write)
c:/devkitpro/devkitarm/bin/../lib/gcc/arm-elf/4.0.2/../../../../arm-elf/lib/interwork\libg.a(vfiprintf.o)
                              c:/devkitpro/devkitarm/bin/../lib/gcc/arm-elf/4.0.2/../../../../arm-elf/lib/interwork\libg.a(fiprintf.o) (vfiprintf)
c:/devkitpro/devkitarm/bin/../lib/gcc/arm-elf/4.0.2/../../../../arm-elf/lib/interwork\libg.a(vfprintf.o)
                              c:/devkitpro/devkitarm/bin/../lib/gcc/arm-elf/4.0.2/../../../../arm-elf/lib/interwork\libg.a(printf.o) (_vfprintf_r)
c:/devkitpro/devkitarm/bin/../lib/gcc/arm-elf/4.0.2/../../../../arm-elf/lib/interwork\libg.a(vsprintf.o)
                              _console.o (vsprintf)
c:/devkitpro/devkitarm/bin/../lib/gcc/arm-elf/4.0.2/../../../../arm-elf/lib/interwork\libg.a(wbuf.o)
                              c:/devkitpro/devkitarm/bin/../lib/gcc/arm-elf/4.0.2/../../../../arm-elf/lib/interwork\libg.a(fputc.o) (__swbuf)
c:/devkitpro/devkitarm/bin/../lib/gcc/arm-elf/4.0.2/../../../../arm-elf/lib/interwork\libg.a(wcrtomb.o)
                              c:/devkitpro/devkitarm/bin/../lib/gcc/arm-elf/4.0.2/../../../../arm-elf/lib/interwork\libg.a(vfiprintf.o) (_wcrtomb_r)
c:/devkitpro/devkitarm/bin/../lib/gcc/arm-elf/4.0.2/../../../../arm-elf/lib/interwork\libg.a(wcsrtombs.o)
                              c:/devkitpro/devkitarm/bin/../lib/gcc/arm-elf/4.0.2/../../../../arm-elf/lib/interwork\libg.a(vfiprintf.o) (_wcsrtombs_r)
c:/devkitpro/devkitarm/bin/../lib/gcc/arm-elf/4.0.2/../../../../arm-elf/lib/interwork\libg.a(wctomb_r.o)
                              c:/devkitpro/devkitarm/bin/../lib/gcc/arm-elf/4.0.2/../../../../arm-elf/lib/interwork\libg.a(wcrtomb.o) (_wctomb_r)
c:/devkitpro/devkitarm/bin/../lib/gcc/arm-elf/4.0.2/../../../../arm-elf/lib/interwork\libg.a(writer.o)
                              c:/devkitpro/devkitarm/bin/../lib/gcc/arm-elf/4.0.2/../../../../arm-elf/lib/interwork\libg.a(stdio.o) (_write_r)
c:/devkitpro/devkitarm/bin/../lib/gcc/arm-elf/4.0.2/../../../../arm-elf/lib/interwork\libg.a(wsetup.o)
                              c:/devkitpro/devkitarm/bin/../lib/gcc/arm-elf/4.0.2/../../../../arm-elf/lib/interwork\libg.a(fvwrite.o) (__swsetup)
c:/devkitpro/devkitarm/bin/../lib/gcc/arm-elf/4.0.2/../../../../arm-elf/lib/interwork\libg.a(closer.o)
                              c:/devkitpro/devkitarm/bin/../lib/gcc/arm-elf/4.0.2/../../../../arm-elf/lib/interwork\libg.a(stdio.o) (_close_r)
c:/devkitpro/devkitarm/bin/../lib/gcc/arm-elf/4.0.2/../../../../arm-elf/lib/interwork\libg.a(dtoa.o)
                              c:/devkitpro/devkitarm/bin/../lib/gcc/arm-elf/4.0.2/../../../../arm-elf/lib/interwork\libg.a(vfprintf.o) (_dtoa_r)
c:/devkitpro/devkitarm/bin/../lib/gcc/arm-elf/4.0.2/../../../../arm-elf/lib/interwork\libg.a(flags.o)
                              c:/devkitpro/devkitarm/bin/../lib/gcc/arm-elf/4.0.2/../../../../arm-elf/lib/interwork\libg.a(fopen.o) (__sflags)
c:/devkitpro/devkitarm/bin/../lib/gcc/arm-elf/4.0.2/../../../../arm-elf/lib/interwork\libg.a(locale.o)
                              c:/devkitpro/devkitarm/bin/../lib/gcc/arm-elf/4.0.2/../../../../arm-elf/lib/interwork\libg.a(wctomb_r.o) (__lc_ctype)
c:/devkitpro/devkitarm/bin/../lib/gcc/arm-elf/4.0.2/../../../../arm-elf/lib/interwork\libg.a(lseekr.o)
                              c:/devkitpro/devkitarm/bin/../lib/gcc/arm-elf/4.0.2/../../../../arm-elf/lib/interwork\libg.a(stdio.o) (_lseek_r)
c:/devkitpro/devkitarm/bin/../lib/gcc/arm-elf/4.0.2/../../../../arm-elf/lib/interwork\libg.a(mprec.o)
                              c:/devkitpro/devkitarm/bin/../lib/gcc/arm-elf/4.0.2/../../../../arm-elf/lib/interwork\libg.a(strtod.o) (__mprec_tinytens)
c:/devkitpro/devkitarm/bin/../lib/gcc/arm-elf/4.0.2/../../../../arm-elf/lib/interwork\libg.a(readr.o)
                              c:/devkitpro/devkitarm/bin/../lib/gcc/arm-elf/4.0.2/../../../../arm-elf/lib/interwork\libg.a(stdio.o) (_read_r)
c:/devkitpro/devkitarm/bin/../lib/gcc/arm-elf/4.0.2/../../../../arm-elf/lib/interwork\libg.a(s_isinf.o)
                              c:/devkitpro/devkitarm/bin/../lib/gcc/arm-elf/4.0.2/../../../../arm-elf/lib/interwork\libg.a(vfprintf.o) (isinf)
c:/devkitpro/devkitarm/bin/../lib/gcc/arm-elf/4.0.2/interwork\libgcc.a(_umoddi3.o)
                              c:/devkitpro/devkitarm/bin/../lib/gcc/arm-elf/4.0.2/../../../../arm-elf/lib/interwork\libg.a(strtoll_r.o) (__umoddi3)
c:/devkitpro/devkitarm/bin/../lib/gcc/arm-elf/4.0.2/../../../../arm-elf/lib/interwork\libsysbase.a(abort.o)
                              c:/devkitpro/devkitarm/bin/../lib/gcc/arm-elf/4.0.2/../../../../arm-elf/lib/interwork\libstdc++.a(eh_personality.o) (abort)
c:/devkitpro/devkitarm/bin/../lib/gcc/arm-elf/4.0.2/../../../../arm-elf/lib/interwork\libsysbase.a(close.o)
                              c:/devkitpro/devkitarm/bin/../lib/gcc/arm-elf/4.0.2/../../../../arm-elf/lib/interwork\libg.a(closer.o) (_close)
c:/devkitpro/devkitarm/bin/../lib/gcc/arm-elf/4.0.2/../../../../arm-elf/lib/interwork\libsysbase.a(fstat.o)
                              c:/devkitpro/devkitarm/bin/../lib/gcc/arm-elf/4.0.2/../../../../arm-elf/lib/interwork\libg.a(fstatr.o) (_fstat)
c:/devkitpro/devkitarm/bin/../lib/gcc/arm-elf/4.0.2/../../../../arm-elf/lib/interwork\libsysbase.a(isatty.o)
                              c:/devkitpro/devkitarm/bin/../lib/gcc/arm-elf/4.0.2/../../../../arm-elf/lib/interwork\libg.a(makebuf.o) (isatty)
c:/devkitpro/devkitarm/bin/../lib/gcc/arm-elf/4.0.2/../../../../arm-elf/lib/interwork\libsysbase.a(lseek.o)
                              c:/devkitpro/devkitarm/bin/../lib/gcc/arm-elf/4.0.2/../../../../arm-elf/lib/interwork\libg.a(lseekr.o) (_lseek)
c:/devkitpro/devkitarm/bin/../lib/gcc/arm-elf/4.0.2/../../../../arm-elf/lib/interwork\libsysbase.a(open.o)
                              c:/devkitpro/devkitarm/bin/../lib/gcc/arm-elf/4.0.2/../../../../arm-elf/lib/interwork\libg.a(openr.o) (_open)
c:/devkitpro/devkitarm/bin/../lib/gcc/arm-elf/4.0.2/../../../../arm-elf/lib/interwork\libsysbase.a(read.o)
                              c:/devkitpro/devkitarm/bin/../lib/gcc/arm-elf/4.0.2/../../../../arm-elf/lib/interwork\libg.a(readr.o) (_read)
c:/devkitpro/devkitarm/bin/../lib/gcc/arm-elf/4.0.2/../../../../arm-elf/lib/interwork\libsysbase.a(sbrk.o)
                              c:/devkitpro/devkitarm/bin/../lib/gcc/arm-elf/4.0.2/../../../../arm-elf/lib/interwork\libg.a(sbrkr.o) (_sbrk)
c:/devkitpro/devkitarm/bin/../lib/gcc/arm-elf/4.0.2/../../../../arm-elf/lib/interwork\libsysbase.a(write.o)
                              c:/devkitpro/devkitarm/bin/../lib/gcc/arm-elf/4.0.2/../../../../arm-elf/lib/interwork\libg.a(syswrite.o) (_write)
c:/devkitpro/devkitarm/bin/../lib/gcc/arm-elf/4.0.2/../../../../arm-elf/lib/interwork\libsysbase.a(malloc_vars.o)
                              c:/devkitpro/devkitarm/bin/../lib/gcc/arm-elf/4.0.2/../../../../arm-elf/lib/interwork\libsysbase.a(sbrk.o) (fake_heap_start)
c:/devkitpro/devkitarm/bin/../lib/gcc/arm-elf/4.0.2/../../../../arm-elf/lib/interwork\libsysbase.a(iosupport.o)
                              c:/devkitpro/devkitarm/bin/../lib/gcc/arm-elf/4.0.2/../../../../arm-elf/lib/interwork\libsysbase.a(close.o) (devoptab_list)
c:/devkitpro/devkitarm/bin/../lib/gcc/arm-elf/4.0.2/../../../../arm-elf/lib/interwork\libc.a(exit.o)
                              c:/devkitpro/devkitarm/bin/../lib/gcc/arm-elf/4.0.2/../../../../arm-elf/lib/interwork\libsysbase.a(abort.o) (exit)
c:/devkitpro/devkitarm/bin/../lib/gcc/arm-elf/4.0.2/../../../../arm-elf/lib/interwork\libc.a(__call_atexit.o)
                              c:/devkitpro/devkitarm/bin/../lib/gcc/arm-elf/4.0.2/../../../../arm-elf/lib/interwork\libc.a(exit.o) (__call_exitprocs)
c:/devkitpro/devkitarm/bin/../lib/gcc/arm-elf/4.0.2/../../../../arm-elf/lib/interwork\libsysbase.a(_exit.o)
                              c:/devkitpro/devkitarm/bin/../lib/gcc/arm-elf/4.0.2/../../../../arm-elf/lib/interwork\libc.a(exit.o) (_exit)

Allocating common symbols
Common symbol       size              file

wrkDirOffset        0x4               ../build/gba_nds_fat_2006-02-09_unicode_M3SD_ReadAlignDetect/gba_nds_fat.o
response            0x200             ../build/gba_nds_fat_2006-02-09_unicode_M3SD_ReadAlignDetect/io_ewsd.o
lfnName             0x100             ../build/gba_nds_fat_2006-02-09_unicode_M3SD_ReadAlignDetect/gba_nds_fat.o
filesysNumSec       0x4               ../build/gba_nds_fat_2006-02-09_unicode_M3SD_ReadAlignDetect/gba_nds_fat.o
curWorkDirCluster   0x4               ../build/gba_nds_fat_2006-02-09_unicode_M3SD_ReadAlignDetect/gba_nds_fat.o
fatFirstFree        0x4               ../build/gba_nds_fat_2006-02-09_unicode_M3SD_ReadAlignDetect/gba_nds_fat.o
errno               0x4               c:/devkitpro/devkitarm/bin/../lib/gcc/arm-elf/4.0.2/../../../../arm-elf/lib/interwork\libg.a(reent.o)
argument            0x4               ../build/gba_nds_fat_2006-02-09_unicode_M3SD_ReadAlignDetect/io_ewsd.o
filesysRootDir      0x4               ../build/gba_nds_fat_2006-02-09_unicode_M3SD_ReadAlignDetect/gba_nds_fat.o
filesysRootDirClus  0x4               ../build/gba_nds_fat_2006-02-09_unicode_M3SD_ReadAlignDetect/gba_nds_fat.o
G6temp              0x4               ../build/gba_nds_fat_2006-02-09_unicode_M3SD_ReadAlignDetect/io_g6.o
SdCardRCA           0x4               ../build/gba_nds_fat_2006-02-09_unicode_M3SD_ReadAlignDetect/io_ewsd.o
SDadd               0x4               ../build/gba_nds_fat_2006-02-09_unicode_M3SD_ReadAlignDetect/io_ezsd.o
openFiles           0x11e0            ../build/gba_nds_fat_2006-02-09_unicode_M3SD_ReadAlignDetect/gba_nds_fat.o
fatBuffer           0x200             ../build/gba_nds_fat_2006-02-09_unicode_M3SD_ReadAlignDetect/gba_nds_fat.o
wrkDirSector        0x4               ../build/gba_nds_fat_2006-02-09_unicode_M3SD_ReadAlignDetect/gba_nds_fat.o
filesysFAT          0x4               ../build/gba_nds_fat_2006-02-09_unicode_M3SD_ReadAlignDetect/gba_nds_fat.o
NandFlashID         0x2               ../build/gba_nds_fat_2006-02-09_unicode_M3SD_ReadAlignDetect/io_g6.o
mpeg2_idct_copy     0x4               ../build/libmpeg2/idct.o
filesysSecPerFAT    0x4               ../build/gba_nds_fat_2006-02-09_unicode_M3SD_ReadAlignDetect/gba_nds_fat.o
ppp7                0x8               ../build/gba_nds_fat_2006-02-09_unicode_M3SD_ReadAlignDetect/io_mpsd.o
mpeg2_mc            0x40              ../build/libmpeg2/motion_comp.o
filesysTotalSize    0x4               ../build/gba_nds_fat_2006-02-09_unicode_M3SD_ReadAlignDetect/gba_nds_fat.o
irqTable            0xc8              c:/devkitpro/libnds/lib\libnds9.a(interrupts.o)
mpeg2_idct_add      0x4               ../build/libmpeg2/idct.o
Hal4ATA_StatusByte  0x2               ../build/gba_nds_fat_2006-02-09_unicode_M3SD_ReadAlignDetect/io_m3sd.o
wrkDirCluster       0x4               ../build/gba_nds_fat_2006-02-09_unicode_M3SD_ReadAlignDetect/gba_nds_fat.o
fatBufferCurSector  0x4               ../build/gba_nds_fat_2006-02-09_unicode_M3SD_ReadAlignDetect/gba_nds_fat.o
globalBuffer        0x200             ../build/gba_nds_fat_2006-02-09_unicode_M3SD_ReadAlignDetect/gba_nds_fat.o
fatLastCluster      0x4               ../build/gba_nds_fat_2006-02-09_unicode_M3SD_ReadAlignDetect/gba_nds_fat.o
filesysBytePerClus  0x4               ../build/gba_nds_fat_2006-02-09_unicode_M3SD_ReadAlignDetect/gba_nds_fat.o
LookUpTable         0x4000            ../build/gba_nds_fat_2006-02-09_unicode_M3SD_ReadAlignDetect/io_g6.o
filesysBytePerSec   0x4               ../build/gba_nds_fat_2006-02-09_unicode_M3SD_ReadAlignDetect/gba_nds_fat.o
filesysSecPerClus   0x4               ../build/gba_nds_fat_2006-02-09_unicode_M3SD_ReadAlignDetect/gba_nds_fat.o
filesysData         0x4               ../build/gba_nds_fat_2006-02-09_unicode_M3SD_ReadAlignDetect/gba_nds_fat.o
lfnExists           0x4               ../build/gba_nds_fat_2006-02-09_unicode_M3SD_ReadAlignDetect/gba_nds_fat.o

Memory Configuration

Name             Origin             Length             Attributes
rom              0x08000000         0x02000000
ewram            0x02000000         0x003ff000
dtcm             0x00800000         0x00004000
itcm             0x00000000         0x00008000
*default*        0x00000000         0xffffffff

Linker script and memory map

                0x00000000                __itcm_start = 0x0
                0x02400000                __ewram_end = 0x2400000
                0x023ff000                __eheap_end = 0x23ff000
                0x00800000                __dtcm_start = 0x800000
                0x00804000                __dtcm_end = 0x804000
                0x008021b0                __sp_svc = (__dtcm_end - 0x100)
                0x00803e00                __sp_irq = (__sp_svc - 0x100)
                0x00803d00                __sp_usr = (__sp_irq - 0x100)

.init           0x02000000      0x230
                0x02000000                __text_start = .
 *(.init)
 .init          0x02000000      0x210 c:/devkitpro/devkitarm/bin/../lib/gcc/arm-elf/4.0.2/../../../../arm-elf/lib/interwork/ds_arm9_crt0.o
                0x02000000                _start
 .init          0x02000210        0xc c:/devkitpro/devkitarm/bin/../lib/gcc/arm-elf/4.0.2/interwork/crti.o
                0x02000210                _init
 .init          0x0200021c        0x4 c:/devkitpro/devkitarm/bin/../lib/gcc/arm-elf/4.0.2/interwork/crtbegin.o
 .init          0x02000220        0x4 c:/devkitpro/devkitarm/bin/../lib/gcc/arm-elf/4.0.2/interwork/crtend.o
 .init          0x02000224        0xc c:/devkitpro/devkitarm/bin/../lib/gcc/arm-elf/4.0.2/interwork/crtn.o
                0x02000230                . = ALIGN (0x4)

.plt
 *(.plt)

.text           0x02000230    0x7511c
 *(.text.*)
 *(.stub)
 *(.gnu.warning)
 *(.gnu.linkonce.t*)
 .gnu.linkonce.t._ZN13Silent_Buffer10clock_rateEl
                0x02000230        0x4 plug_gmegbs.o
                0x02000230                Silent_Buffer::clock_rate(long)
 .gnu.linkonce.t._ZN13Silent_Buffer9bass_freqEi
                0x02000234        0x4 plug_gmegbs.o
                0x02000234                Silent_Buffer::bass_freq(int)
 .gnu.linkonce.t._ZN13Silent_Buffer5clearEv
                0x02000238        0x4 plug_gmegbs.o
                0x02000238                Silent_Buffer::clear()
 .gnu.linkonce.t._ZN13Silent_Buffer7channelEi
                0x0200023c       0x18 plug_gmegbs.o
                0x0200023c                Silent_Buffer::channel(int)
 .gnu.linkonce.t._ZN13Silent_Buffer9end_frameElb
                0x02000254        0x4 plug_gmegbs.o
                0x02000254                Silent_Buffer::end_frame(long, bool)
 .gnu.linkonce.t._ZNK13Silent_Buffer13samples_availEv
                0x02000258        0x8 plug_gmegbs.o
                0x02000258                Silent_Buffer::samples_avail() const
 .gnu.linkonce.t._ZN13Silent_Buffer12read_samplesEPsl
                0x02000260        0x8 plug_gmegbs.o
                0x02000260                Silent_Buffer::read_samples(short*, long)
 .gnu.linkonce.t._ZN13Silent_Buffer15set_sample_rateEli
                0x02000268       0x10 plug_gmegbs.o
                0x02000268                Silent_Buffer::set_sample_rate(long, int)
 .gnu.linkonce.t._ZN13Silent_BufferD0Ev
                0x02000278       0x1c plug_gmegbs.o
                0x02000278                Silent_Buffer::~Silent_Buffer()
 .gnu.linkonce.t._ZN13Silent_BufferD1Ev
                0x02000294       0x10 plug_gmegbs.o
                0x02000294                Silent_Buffer::~Silent_Buffer()
 .gnu.linkonce.t._ZN11Classic_Emu10set_bufferEP12Multi_Buffer
                0x020002a4       0x48 ../build/libgme/Classic_Emu.o
                0x020002a4                Classic_Emu::set_buffer(Multi_Buffer*)
 .gnu.linkonce.t._ZN13Fir_ResamplerILi12EE4readEPsl
                0x020002ec      0x1b8 ../build/libgme/Dual_Resampler.o
                0x020002ec                Fir_Resampler<12>::read(short*, long)
 .gnu.linkonce.t._ZN14Effects_Buffer7channelEi
                0x020004a4       0x44 ../build/libgme/Effects_Buffer.o
                0x020004a4                Effects_Buffer::channel(int)
 .gnu.linkonce.t._Z8gen_sincI3DsfEviddidPsRKT_
                0x020004e8      0x3e8 ../build/libgme/Fir_Resampler.o
                0x020004e8                void gen_sinc<Dsf>(int, double, double, int, double, short*, Dsf const&)
 .gnu.linkonce.t._ZNK10Blip_SynthILi8ELi1EE6offsetEliP11Blip_Buffer
                0x020008d0      0x110 ../build/libgme/Gb_Apu.o
                0x020008d0                Blip_Synth<8, 1>::offset(long, int, Blip_Buffer*) const
 .gnu.linkonce.t._ZN12Multi_BufferD1Ev
                0x020009e0       0x10 ../build/libgme/Multi_Buffer.o
                0x020009e0                Multi_Buffer::~Multi_Buffer()
 .gnu.linkonce.t._ZN12Multi_BufferD0Ev
                0x020009f0       0x1c ../build/libgme/Multi_Buffer.o
                0x020009f0                Multi_Buffer::~Multi_Buffer()
 .gnu.linkonce.t._ZNK13Stereo_Buffer13samples_availEv
                0x02000a0c       0x10 ../build/libgme/Multi_Buffer.o
                0x02000a0c                Stereo_Buffer::samples_avail() const
 .gnu.linkonce.t._ZN13Stereo_Buffer7channelEi
                0x02000a1c       0x18 ../build/libgme/Multi_Buffer.o
                0x02000a1c                Stereo_Buffer::channel(int)
 .gnu.linkonce.t._ZN11Mono_Buffer10clock_rateEl
                0x02000a34       0x20 ../build/libgme/Multi_Buffer.o
                0x02000a34                Mono_Buffer::clock_rate(long)
 .gnu.linkonce.t._ZN11Mono_Buffer5clearEv
                0x02000a54       0x18 ../build/libgme/Multi_Buffer.o
                0x02000a54                Mono_Buffer::clear()
 .gnu.linkonce.t._ZN11Mono_Buffer9bass_freqEi
                0x02000a6c       0x14 ../build/libgme/Multi_Buffer.o
                0x02000a6c                Mono_Buffer::bass_freq(int)
 .gnu.linkonce.t._ZN11Mono_Buffer12read_samplesEPsl
                0x02000a80       0x18 ../build/libgme/Multi_Buffer.o
                0x02000a80                Mono_Buffer::read_samples(short*, long)
 .gnu.linkonce.t._ZNK11Mono_Buffer13samples_availEv
                0x02000a98        0xc ../build/libgme/Multi_Buffer.o
                0x02000a98                Mono_Buffer::samples_avail() const
 .gnu.linkonce.t._ZN9Music_Emu10set_bufferEP12Multi_Buffer
                0x02000aa4        0x4 ../build/libgme/Music_Emu.o
                0x02000aa4                Music_Emu::set_buffer(Multi_Buffer*)
 .gnu.linkonce.t._ZN9Music_Emu11mute_voicesEi
                0x02000aa8        0x8 ../build/libgme/Music_Emu.o
                0x02000aa8                Music_Emu::mute_voices(int)
 .gnu.linkonce.t._ZN9Music_Emu13set_equalizerERKNS_11equalizer_tE
                0x02000ab0       0x10 ../build/libgme/Music_Emu.o
                0x02000ab0                Music_Emu::set_equalizer(Music_Emu::equalizer_t const&)
 .gnu.linkonce.t._ZNK10Blip_SynthILi12ELi1EE6offsetEliP11Blip_Buffer
                0x02000ac0      0x16c ../build/libgme/Nes_Vrc6_Apu.o
                0x02000ac0                Blip_Synth<12, 1>::offset(long, int, Blip_Buffer*) const
 .gnu.linkonce.t._ZN11Data_ReaderD1Ev
                0x02000c2c       0x10 ../build/libgme/abstract_file.o
                0x02000c2c                Data_Reader::~Data_Reader()
 .gnu.linkonce.t._ZN11Data_ReaderD0Ev
                0x02000c3c       0x1c ../build/libgme/abstract_file.o
                0x02000c3c                Data_Reader::~Data_Reader()
 .gnu.linkonce.t._ZN11Data_WriterD1Ev
                0x02000c58       0x10 ../build/libgme/abstract_file.o
                0x02000c58                Data_Writer::~Data_Writer()
 .gnu.linkonce.t._ZN11Data_WriterD0Ev
                0x02000c68       0x1c ../build/libgme/abstract_file.o
                0x02000c68                Data_Writer::~Data_Writer()
 .gnu.linkonce.t._ZN11Null_WriterD0Ev
                0x02000c84       0x1c ../build/libgme/abstract_file.o
                0x02000c84                Null_Writer::~Null_Writer()
 .gnu.linkonce.t._ZN15Mem_File_ReaderD0Ev
                0x02000ca0       0x1c ../build/libgme/abstract_file.o
                0x02000ca0                Mem_File_Reader::~Mem_File_Reader()
 .gnu.linkonce.t._ZN11File_ReaderD1Ev
                0x02000cbc       0x10 ../build/libgme/abstract_file.o
                0x02000cbc                File_Reader::~File_Reader()
 .gnu.linkonce.t._ZN11File_ReaderD0Ev
                0x02000ccc       0x1c ../build/libgme/abstract_file.o
                0x02000ccc                File_Reader::~File_Reader()
 .gnu.linkonce.t._ZN13Subset_ReaderD1Ev
                0x02000ce8       0x10 ../build/libgme/abstract_file.o
                0x02000ce8                Subset_Reader::~Subset_Reader()
 .gnu.linkonce.t._ZN13Subset_ReaderD0Ev
                0x02000cf8       0x1c ../build/libgme/abstract_file.o
                0x02000cf8                Subset_Reader::~Subset_Reader()
 .gnu.linkonce.t._ZN11Null_WriterD1Ev
                0x02000d14       0x10 ../build/libgme/abstract_file.o
                0x02000d14                Null_Writer::~Null_Writer()
 .gnu.linkonce.t._ZN15Mem_File_ReaderD1Ev
                0x02000d24       0x10 ../build/libgme/abstract_file.o
                0x02000d24                Mem_File_Reader::~Mem_File_Reader()
 *(.glue_7)
 .glue_7        0x02000d34      0x120 c:/devkitpro/devkitarm/bin/../lib/gcc/arm-elf/4.0.2/../../../../arm-elf/lib/interwork\libsysbase.a(_exit.o)
                0x02000e00                __vramSetMainBanks_from_arm
                0x02000df4                __irqSet_from_arm
                0x02000d94                __gbfs_get_nth_obj_from_arm
                0x02000dac                __scanKeys_from_arm
                0x02000d88                __gbfs_count_objs_from_arm
                0x02000e24                __swiSoftReset_from_arm
                0x02000dd0                __swiWaitForIRQ_from_arm
                0x02000d64                __gbfs_get_obj_from_arm
                0x02000d40                __swiDecompressLZSSWram_from_arm
                0x02000dc4                __swiDelay_from_arm
                0x02000e48                __irqEnable_from_arm
                0x02000d34                ___call_via_r3_from_arm
                0x02000ddc                ____divsi3_from_arm
                0x02000d70                ____modsi3_from_arm
                0x02000e18                __vramSetBankI_from_arm
                0x02000e0c                __vramSetBankH_from_arm
                0x02000e3c                __cardPolledTransfer_from_arm
                0x02000de8                __irqInit_from_arm
                0x02000e30                __sdmFastReadData512_from_arm
                0x02000d58                __cardWriteCommand_from_arm
                0x02000db8                __keysUp_from_arm
                0x02000da0                __swiWaitForVBlank_from_arm
                0x02000d7c                __find_first_gbfs_file_from_arm
                0x02000d4c                __swiFastCopy_from_arm
 *(.glue_7t)
 .glue_7t       0x02000e54       0x20 c:/devkitpro/devkitarm/bin/../lib/gcc/arm-elf/4.0.2/../../../../arm-elf/lib/interwork\libsysbase.a(_exit.o)
                0x02000e64                __strncpy_from_thumb
                0x02000e54                __memcpy_from_thumb
                0x02000e70                __bsearch_change_to_arm
                0x02000e6c                __bsearch_from_thumb
                0x02000e5c                __memcmp_from_thumb
                0x02000e60                __memcmp_change_to_arm
                0x02000e58                __memcpy_change_to_arm
                0x02000e68                __strncpy_change_to_arm
                0x02000e74                . = ALIGN (0x4)
 .text          0x02000e74       0xec c:/devkitpro/devkitarm/bin/../lib/gcc/arm-elf/4.0.2/interwork/crtbegin.o
 .text          0x02000f60      0x518 FontPro.o
                0x02001404                FontPro_GetCharWidth(unsigned int)
                0x02000f60                FontPro_Free()
                0x0200143c                FontPro_Exists(unsigned int)
                0x02000fd0                FontPro_Init(unsigned char*)
                0x02001138                FontPro_WriteChar(int, int, unsigned short, unsigned short)
                0x02001288                FontPro_WriteCharRect(unsigned short*, int, int, int, int, unsigned short, unsigned short)
 .text          0x02001478      0x4f4 VRAMTool.o
                0x020014cc                VRAM_SetCharLine(int, int, unsigned short)
                0x02001870                VRAM_GetStringWidthUTF8(char const*)
                0x02001498                VRAM_ClearPixel(int, int)
                0x02001560                VRAM_WriteString(int, int, char const*, unsigned short)
                0x02001640                VRAM_GetStringWidth(char const*)
                0x020015c4                VRAM_WriteStringRect(unsigned short*, int, int, int, int, char const*, unsigned short)
                0x02001740                VRAM_WriteStringRectL(unsigned short*, int, int, int, int, char const*, unsigned short)
                0x0200194c                VRAM_Clear()
                0x02001478                VRAM_SetPixel(int, int, unsigned short)
                0x020017d8                VRAM_WriteStringRectUTF8(unsigned short*, int, int, int, int, char const*, unsigned short)
                0x020014f8                VRAM_SetCharLineRect(unsigned short*, int, int, int, int, int, unsigned short)
                0x020016ac                VRAM_WriteStringRectW(unsigned short*, int, int, int, int, unsigned short const*, unsigned short)
                0x020014b0                VRAM_GetPixel(int, int)
                0x020018e8                VRAM_GetStringWidthW(unsigned short const*)
 .text          0x0200196c      0x2e8 _console.o
                0x0200196c                _consoleInit256(unsigned short*, unsigned short*, unsigned short, unsigned short*)
                0x02001a2c                _consolePrintChar(char)
                0x02001b84                _consolePrint(char const*)
                0x020019e0                _consolePrintSet
                0x02001bf8                _consoleClear()
                0x020019cc                _consoleInitDefault(unsigned short*, unsigned short*, unsigned char)
                0x02001bb8                _consolePrintf(char const*, ...)
                0x02001c50                _consolePrintOne
                0x02001a1c                _consoleGetPrintSetY
 .text          0x02001c54       0xe0 _consoleWriteLog.o
                0x02001c54                PrfStart
                0x02001c7c                PrfEnd
 .text          0x02001d34      0xc0c cardsaver.o
                0x020025c8                cardmeSizeT2()
                0x0200201c                cardmeSizeT3()
                0x0200274c                cardmeSectorErase(unsigned int)
                0x020025a4                cardmeWriteEeprom(unsigned int, unsigned char*, unsigned int, unsigned int)
                0x02002870                cardmeChipErase_old()
                0x02001e1c                cardmeReadID(int)
                0x020026e8                cardmeChipErase()
                0x02001f04                cardmeGetType()
                0x0200266c                cardmeSize(int)
                0x0200216c                cardmeWriteEepromT1(unsigned int, unsigned char*, unsigned int, unsigned int)
                0x02002424                cardmeWriteEepromT3(unsigned int, unsigned char*, unsigned int, unsigned int)
                0x020022c0                cardmeWriteEepromT2(unsigned int, unsigned char*, unsigned int, unsigned int)
                0x02002040                cardmeReadEeprom(unsigned int, unsigned char*, unsigned int, unsigned int)
                0x02001d34                cardmeCMD(unsigned char, int)
 .text          0x02002940      0xa34 cimfs.o
                0x02002acc                CIMFS::CIMFS()
                0x02003334                CIMFS::GetTargetPathIndexFromFilename(unsigned int, char const*)
                0x02002a04                CIMFS::InitEXFS()
                0x02002cd8                CIMFS::GetFileTypeFromFilename(unsigned int, char const*)
                0x02002abc                CIMFS::~CIMFS()
                0x02002d18                CIMFS::GetFilenameSizeFromIndex(unsigned int, unsigned int)
                0x02002ea8                CIMFS::GetFileDataSizeFromIndex(unsigned int, unsigned int)
                0x02002dc8                CIMFS::GetFilenameFromIndex(unsigned int, unsigned int)
                0x02002d64                CIMFS::GetLongFilenameSizeFromIndex(unsigned int, unsigned int)
                0x02002adc                CIMFS::GetPathIndex(char const*)
                0x02002bbc                CIMFS::GetIndexFromFilename(unsigned int, char const*)
                0x02002ac4                CIMFS::~CIMFS()
                0x02002b74                CIMFS::GetFileCount(unsigned int)
                0x02003170                CIMFS::GetFileDataFromFilename(unsigned int, char const*, unsigned char*)
                0x02002a90                CIMFS::InitIMFS()
                0x02002e14                CIMFS::GetLongFilenameFromIndex(unsigned int, unsigned int)
                0x02002940                CIMFS::Init(unsigned char*)
                0x02003298                CIMFS::GetTargetPathIndexFromIndex(unsigned int, unsigned int)
                0x02002e78                CIMFS::GetFilenameExtFromIndex(unsigned int, unsigned int)
                0x020031b4                CIMFS::GetFileDirectDataFromIndex(unsigned int, unsigned int)
                0x02002b54                CIMFS::GetFileTopIndex(unsigned int)
                0x02002b98                CIMFS::GetPathName(unsigned int)
                0x02002f64                CIMFS::GetFileDataFromIndex(unsigned int, unsigned int, unsigned char*)
                0x02002f24                CIMFS::GetFileDataSizeFromFilename(unsigned int, char const*)
                0x02003258                CIMFS::GetFileDirectDataFromFilename(unsigned int, char const*)
                0x02002c90                CIMFS::GetFileTypeFromIndex(unsigned int, unsigned int)
                0x02002ad4                CIMFS::CIMFS()
 .text          0x02003374      0x2e8 cstream.o
                0x02003468                CStream::Readu16()
                0x02003374                CStream::CStream(unsigned char const*, int)
                0x02003414                CStream::eof() const
                0x020033f0                CStream::SetOffset(int)
                0x02003598                CStream::ReadBuffer32bit(void*, int)
                0x02003518                CStream::ReadBuffer(void*, int)
                0x0200342c                CStream::Readu8()
                0x020033cc                CStream::~CStream()
                0x020033ac                CStream::~CStream()
                0x0200340c                CStream::OverrideSize(int)
                0x020034ac                CStream::Readu32()
                0x020033bc                CStream::~CStream()
                0x02003390                CStream::CStream(unsigned char const*, int)
                0x020033e8                CStream::GetOffset() const
                0x02003404                CStream::GetSize() const
 .text          0x0200365c      0x500 cstream_fs.o
                0x02003888                CStreamFS::~CStreamFS()
                0x0200386c                CStreamFS::~CStreamFS()
                0x020038cc                CStreamFS::GetOffset() const
                0x02003764                CStreamFS::CStreamFS(int)
                0x020038a4                CStreamFS::~CStreamFS()
                0x02003908                CStreamFS::OverrideSize(int)
                0x02003910                CStreamFS::eof() const
                0x02003928                CStreamFS::Readu8()
                0x02003a44                CStreamFS::ReadBuffer(void*, int)
                0x020039e8                CStreamFS::Readu32()
                0x0200365c                CStreamFS::CStreamFS(int)
                0x0200398c                CStreamFS::Readu16()
                0x02003900                CStreamFS::GetSize() const
                0x020038d4                CStreamFS::SetOffset(int)
                0x02003ad0                CStreamFS::ReadBuffer32bit(void*, int)
 .text          0x02003b5c      0xc5c directdisk.o
                0x0200443c                DD_Init(EDDSaveType)
                0x02003dfc                DD_isEnabled()
                0x02003dec                DD_GetSaveType()
                0x020043f0                CartCheck_EEPROM()
                0x020042c8                DD_WriteFile(EDDFile, void*, unsigned int)
                0x02003d84                CartFormat()
                0x02003d08                CartCheckData()
                0x020041a0                DD_ReadFile(EDDFile, void*, unsigned int)
                0x02003e24                DD_InitFile(EDDFile)
 .text          0x020047b8      0xba0 dll.o
                0x020047c4                DLL_FreeLibrary(TPluginBody*, bool)
                0x02005234                DLLList_LoadPlugin(char*)
                0x02004e38                Plugin_GetBINFileHandle()
                0x02004e74                Plugin_msp_fclose(int)
                0x02004aa0                DLLList_GetPluginFilename(char*, char*)
                0x02004e84                DLL_LoadLibrary(TPluginBody*, void*, int)
                0x02004d80                Plugin_GetINIData()
                0x02004d94                Plugin_GetINISize()
                0x02004830                DLLList_Regist(char*)
                0x02004da8                Plugin_GetBINData()
                0x02004cc8                DLLList_FreePlugin(TPluginBody*)
                0x02004e64                Plugin_msp_fopen(char const*)
                0x02004e24                Plugin_GetBINSize()
                0x02004bcc                DLLList_GetClockPluginFilename(int, char*)
                0x020049ac                DLLList_Init()
 .text          0x02005358      0x124 dmalink.o
                0x02005384                DMALinkStart
                0x02005358                DMALinkInit
                0x0200536c                DMALinkWaitTerminate
                0x020053f4                DMALinkInterruptHandler_DMA1
 .text          0x0200547c     0x14d8 dsCard.o
                0x0200562c                SD_ReadLoop_wait
                0x02006490                dsCardi_SectorCleanromMode
                0x02005e1c                dsCardi_ReadID
                0x02005560                dsCardi_ReadSramblock
                0x020063b4                dsCardi_ModifyReturn
                0x02005610                ResetFlash
                0x02005ba0                BL_WriteFlash
                0x0200656c                dsCardi_SetRompage
                0x020068d8                EraseFlash
                0x0200673c                WriteFlash
                0x02006654                dsCardi_ReadFlashCommand
                0x02005b14                BL_ReadFlashBuffer
                0x02005ac4                BL_EraseFlash
                0x020054b4                dsCardi_WriteSram
                0x02006028                dsCardi_SetSaverType
                0x020061f0                dsCardi_SectorPerClus
                0x02005d00                dsCardi_TstSDCard
                0x0200547c                Enable_Arm9DS
                0x02006110                dsCardi_ReadSram
                0x02005fcc                dsCardi_ReadCard_M
                0x02005570                dsCardi_WriteFlashCommand
                0x020062d8                dsCardi_SetModifyMode
                0x020058a0                dsCardReadSaveFlash
                0x02005ee4                dsCardi_ReadCard_status
                0x0200549c                Enable_Arm7DS
                0x02005738                dsCardWriteSaveFlash
                0x02005a1c                ReadFlashCommand
                0x0200597c                WriteFlashCommand
 .text          0x02006954      0xe18 extmem.o
                0x02006c74                extmem_ExistMemory()
                0x020070b4                extmem_WriteByte(unsigned int, void*, unsigned int, unsigned int)
                0x02006db4                extmem_Exists(unsigned int)
                0x0200718c                extmem_ReadByte(unsigned int, void*, unsigned int, unsigned int)
                0x02006cc0                extmem_GetMemSize()
                0x0200741c                extmem_Init()
                0x02007264                extmem_Write(unsigned int, void*, unsigned int)
                0x02006d1c                extmem_SetCount(unsigned int)
                0x02006bec                extmem_Free()
                0x02006c9c                extmem_GetMemType()
                0x02006e50                extmem_Alloc(unsigned int, unsigned int)
                0x02006f14                extmem_Read(unsigned int, void*, unsigned int)
 .text          0x0200776c      0x314 ez5_language.o
                0x02007a18                GetSaveSize()
                0x0200776c                LoadChinese()
                0x020078b0                LoadEnglish()
                0x020079f4                LoadLanguage()
 .text          0x02007a80     0x1fc8 filesys.o
                0x02008494                FileSys_fread
                0x02007d74                FileSys_RefreshPath_GMENSF_DuplicateTracks(int)
                0x020083ec                FileSys_fseek
                0x0200806c                FileSys_GetFileDataSize
                0x02007b70                FileSys_GetVolumeType
                0x02007b0c                FileSys_Init
                0x02008bb0                FileSys_fopen_DirectMapping
                0x0200808c                FileSys_fclose
                0x02008994                Shuffle_GetNextIndex
                0x02008538                FileSys_GetFileData
                0x02009724                FileSys_ChangePath
                0x0200811c                FileSys_fopen
                0x02007e04                FileSys_RefreshPath_GMEGBS_DuplicateTracks(int)
                0x02008b9c                Normal_GetPrevIndex
                0x02008384                FileSys_ftell
                0x02008e48                FileSys_RefreshPath
                0x02007a80                FileSys_Free
                0x02008a90                Shuffle_GetPrevIndex
                0x02007eec                FileSys_GetFileCount
                0x02007c50                FileSys_RefreshPath_DuplicateTracks(int)
                0x02008b80                Normal_GetNextIndex
                0x02007e7c                FileSys_GetLastPathItemIndex
                0x02007fb0                FileSys_GetFileTrackNum
                0x02007fd0                FileSys_GetFileExt
                0x02007f74                FileSys_GetFilename
                0x02008658                FileListSort()
                0x02008360                FileSys_fGetLongFileName
                0x02007b80                FileSys_RefreshVolume
                0x02007f94                FileSys_GetFileType
                0x02008980                Shuffle_Clear
                0x02007f48                FileSys_GetPathName
                0x02007efc                FileSys_GetPureFileCount
                0x02008c4c                FileSys_InitInterface()
                0x02007f54                FileSys_GetAlias
                0x020085d8                FileSys_GetFileCluster
                0x02009904                FileSys_FreeInterface()
                0x02008588                FileSys_fread_fast
 .text          0x02009a48      0x2bc formdt.o
                0x02009a48                formdt_SetFormatDateStr(char*)
                0x02009a74                fd_GetNextDateType()
                0x02009b68                formdt_FormatDate(char*, unsigned int, unsigned int, unsigned int, unsigned int)
 .text          0x02009d04      0x288 imgcalc.o
                0x02009f7c                imgcalc_GetVerticalPadding()
                0x02009f64                imgcalc_GetWideFlag()
                0x02009f50                imgcalc_GetKeyWait(int)
                0x02009e8c                imgcalc_GetImageMode()
                0x02009e9c                imgcalc_GetNextIndex(float, int)
                0x02009d60                imgcalc_SetImageMode(EImageMode, int)
                0x02009f40                imgcalc_GetRatio(int)
 .text          0x02009f8c     0x1428 inifile.o
                0x02009fac                InitINI()
                0x0200b344                LoadINI(char*)
 .text          0x0200b3b4     0x8b84 main.o
                0x02013e18                MWinCallAbout_CloseButton(unsigned int)
                0x02013494                MWinCallAbout_MouseMove(unsigned int, int, int)
                0x02010e24                Proc_StartSound_AutoPlay()
                0x02013c40                MWinCallFileInfo_Draw(TWinBody*)
                0x02013768                MWinCallDateTime_MouseMove(unsigned int, int, int)
                0x02013e0c                MWinCallFileInfo_MouseDown(unsigned int, int, int)
                0x02013b38                MWinCallSetNext_MouseMove(unsigned int, int, int)
                0x02013710                MWinCallFileSelect_MouseUp(unsigned int, int, int)
                0x0200d9a4                ShowLogHalt
                0x0200f9bc                KeyRepeat_Delay(unsigned int)
                0x02012ea4                MWinCallPicView_Draw(TWinBody*)
                0x02010ea0                Proc_Shutdown()
                0x020134a4                MWinCallHelp_MouseUp(unsigned int, int, int)
                0x0200e704                chkITCM(int)
                0x02013490                MWinCallAbout_MouseDown(unsigned int, int, int)
                0x02013914                MWinCallTextView_MouseUp(unsigned int, int, int)
                0x02011af8                MWinCallAbout_Draw(TWinBody*)
                0x0200b3b4                InterruptHandler_Vsync_setfb(bool, int)
                0x02013698                MWinCallFileSelect_MouseDown(unsigned int, int, int)
                0x0200d85c                ProcBacklightOffCount(unsigned int)
                0x02013e38                MWinCallHelp_CloseButton(unsigned int)
                0x0200b65c                isExecMode_DPG()
                0x0201370c                MWinCallFileSelect_MouseMove(unsigned int, int, int)
                0x02013eac                MWinCallPicView_CloseButton(unsigned int)
                0x02013bb0                MWinCallSetNext_MouseDown(unsigned int, int, int)
                0x0200e7d0                OpenSaveTypeFile()
                0x02013770                MWinCallPicView_MouseDown(unsigned int, int, int)
                0x02010ff4                strpcmRequestStop_Proc()
                0x02013764                MWinCallDateTime_MouseDown(unsigned int, int, int)
                0x0200e70c                chkDTCM(int)
                0x02011fb8                MWinCallPlayControl_Draw(TWinBody*, TSkinBM*)
                0x0200c044                Pic_GetRatio()
                0x0200e7b4                CheckTCM
                0x020137d4                MWinCallPicView_MouseMove(unsigned int, int, int)
                0x0200be0c                Pic_SetSBar(float)
                0x0200ce40                FS_DrawFileDetail(unsigned int, unsigned char)
                0x02012ea0                MWinCallDateTime_Draw(TWinBody*)
                0x0200c034                Pic_SetRatio(float)
                0x02013e6c                MWinCallFileSelect_CloseButton(unsigned int)
                0x0201376c                MWinCallDateTime_MouseUp(unsigned int, int, int)
                0x020110b0                mainloop()
                0x02013e10                MWinCallFileInfo_MouseMove(unsigned int, int, int)
                0x0200e87c                WriteSaveTypeFile()
                0x0200f9dc                ProcessTouchPad_DPG()
                0x0200ebb0                main
                0x0200d6e4                RefreshBacklightOffCount()
                0x0201390c                MWinCallTextView_MouseDown(unsigned int, int, int)
                0x0200f998                KeyRepeat_Proc(unsigned int)
                0x0200d2dc                FS_SetCursor(int)
                0x02013498                MWinCallAbout_MouseUp(unsigned int, int, int)
                0x02013f18                MWinCallFileInfo_CloseButton(unsigned int)
                0x0200f4b8                ScanIPC3(bool)
                0x0200d9e8                FS_StartFromIndex(int)
                0x02013e8c                MWinCallDateTime_CloseButton(unsigned int)
                0x02013918                MWinCallSetNext_Draw(TWinBody*)
                0x0201241c                MWinCallFileSelect_Draw(TWinBody*, TSkinBM*)
                0x0200f890                WaitKeyClear(bool)
                0x0200d414                FS_ChangePath(char*)
                0x0200f920                KeyRepeat_On(unsigned int)
                0x02013e14                MWinCallFileInfo_MouseUp(unsigned int, int, int)
                0x020133d0                MWinCallTextView_Draw(TWinBody*)
                0x02013bb4                MWinCallSetNext_MouseUp(unsigned int, int, int)
                0x0200f900                KeyRepeat_Flash()
                0x02013ed4                MWinCallProgress_CloseButton(unsigned int)
                0x0200c0e8                ImageControlTimeOut_ProcVSync_callback(unsigned int)
                0x020134a0                MWinCallHelp_MouseMove(unsigned int, int, int)
                0x0200b3f8                strpcmUpdate_mainloop()
                0x0200d938                videoSetModeSub_SetShowLog
                0x020134a8                MWinCallPlayControl_MouseDown(unsigned int, int, int)
                0x0200c55c                FS_ExecuteStop()
                0x0200d26c                FS_DrawFileInfoFromIndex(int, signed char)
                0x020138d4                MWinCallPicView_MouseUp(unsigned int, int, int)
                0x02013ec0                MWinCallTextView_CloseButton(unsigned int)
                0x02013694                MWinCallPlayControl_MouseUp(unsigned int, int, int)
                0x0200e8d8                main_ShowWarn()
                0x0200e7b8                NDSLite_SetBrightness(unsigned int)
                0x0201349c                MWinCallHelp_MouseDown(unsigned int, int, int)
                0x02013910                MWinCallTextView_MouseMove(unsigned int, int, int)
                0x02013e58                MWinCallPlayControl_CloseButton(unsigned int)
                0x02011c60                MWinCallHelp_Draw(TWinBody*)
                0x02013690                MWinCallPlayControl_MouseMove(unsigned int, int, int)
                0x0200c054                ImageControlTimeOut_ProcReset_callback()
                0x02013ed8                MWinCallSetNext_CloseButton(unsigned int)
 .text          0x02013f38      0x670 memtool.o
                0x02014560                PrintFreeMem
                0x020144e8                safefree
                0x020142bc                MemCopy16DMA2
                0x020143c8                safemalloc
                0x0201405c                MemCopy16DMA3
                0x02013fd0                MemCopy32CPU
                0x02014138                MemSet16DMA3
                0x02014038                MemSet8CPU(unsigned char, void*, unsigned int)
                0x02014320                MemSet16DMA2
                0x020141bc                MemSet32DMA3
                0x02014398                MemCopy32swi256bit
                0x02013f90                MemCopy8CPU
                0x020143ac                safemalloc_halt()
                0x02013fd4                MemSet16CPU
                0x02013f38                DC_FlushRangeOverrun
                0x02014514                testmalloc
                0x020140c8                MemCopy32DMA3
                0x02014010                MemSet32CPU
                0x02013fb0                MemCopy16CPU
                0x0201423c                MemSet8DMA3
 .text          0x020145a8     0x55a4 mwin.o
                0x02019330                MWin_ProgressHide()
                0x020194f4                MWin_GetVideoFullScreen()
                0x02017b20                MWin_SetSBarHPos(unsigned int, int)
                0x02017ea0                CheckInsideRect(TRect, int, int)
                0x0201877c                MWin_ShowDesktop()
                0x02018ab4                MWin_ShowConfigDialog()
                0x020145f8                MWin_GetVisible(unsigned int)
                0x02017e70                MWin_GetClientWidth(unsigned int)
                0x02017af4                MWin_SetSBarV(unsigned int, int, int, int)
                0x02019298                MWin_ProgressShow(char*, int)
                0x0201691c                MWin_DrawTitleBar(unsigned int)
                0x02019480                MWin_SetVideoFullScreen(bool)
                0x02019428                MWin_ClearVideoOverlay()
                0x02015ebc                MWin_Init()
                0x02019394                MWin_SetVideoWideFlag(bool)
                0x02017a1c                MWin_AllRefresh()
                0x02017b84                MWin_GetSBarVPos(unsigned int)
                0x02017efc                MWinCallProgress_MouseDown(unsigned int, int, int)
                0x0201828c                MWin_MouseUp()
                0x02017bcc                MWin_SetSBarVPosFromPixel(unsigned int, int)
                0x02016710                MWin_InsideScreen(TRect*)
                0x02018288                MWinCallProgress_MouseUp(unsigned int, int, int)
                0x020165d4                MWin_FreeMem(unsigned int)
                0x02016774                MWin_RefreshScreenMask()
                0x02019390                MWin_InitVideoOverlay()
                0x02015e78                ApplyOverrideWindowRect(TRect*, TRect*, bool*, TiniOverrideWindowRectBody*)
                0x02017130                MWin_AllTrans()
                0x020193b4                MWin_SetVideoOverlay(bool)
                0x020187b4                MWin_ShowNdsRomIcon(unsigned int*, unsigned short*, unsigned int, unsigned int, unsigned short const*)
                0x020184bc                MWin_ShowHelpDialog()
                0x020179ec                MWin_RefreshWindow(unsigned int)
                0x02017cf4                MWin_GetWindowIndexFromPos(int, int)
                0x02017aa8                MWin_GetWinBody(unsigned int)
                0x020164d0                MWin_Free()
                0x020172fc                MWin_DrawClient(unsigned int)
                0x02016548                MWin_AllocMem(unsigned int)
                0x0201930c                MWin_ProgressSetPos(int)
                0x02017e30                MWin_GetTopWinIndex()
                0x02017e88                MWin_GetClientHeight(unsigned int)
                0x02018f70                MWin_ShowFileDetail(unsigned int, unsigned int)
                0x02017b58                MWin_SetSBarH(unsigned int, int, int, int)
                0x02017a74                MWin_PlayControl_SetWindowTitleW(unsigned short*)
                0x02017f00                MWin_MouseDown(int, int)
                0x02018284                MWinCallProgress_MouseMove(unsigned int, int, int)
                0x020145a8                ImageControlTimeOut_SetDefault(unsigned int)
                0x02018f74                MWin_ShowProgressDialog(unsigned int, unsigned short, unsigned short)
                0x0201793c                MWin_DrawSBarVH(unsigned int)
                0x02014610                ImageControlTimeOut_ProcVSync(unsigned int)
                0x020173f8                MWin_DrawSBar(unsigned int, TSBar*)
                0x020166a0                MWin_SetActiveTopMost()
                0x02018b28                MWIn_ShowSelcetItem(unsigned char, unsigned char, unsigned char, unsigned short, unsigned short)
                0x02017abc                MWin_SetSBarVPos(unsigned int, int)
                0x020150b0                LoadSkinBM()
                0x02017a44                MWin_SetWindowTitle(unsigned int, char*)
                0x020164d4                MWin_ClearDesktop()
                0x02017c60                MWin_SetSBarHPosFromPixel(unsigned int, int)
                0x02019458                MWin_SetVideoOverlaySize(unsigned int, unsigned int, float)
                0x02019854                MWin_MouseMove(int, int)
                0x02017158                MWinCallProgress_Draw(TWinBody*, TSkinBM*)
                0x02016634                MWin_SetActive(unsigned int)
                0x02017ba8                MWin_GetSBarHPos(unsigned int)
                0x02016904                MWin_SetVisible(unsigned int, bool)
                0x020145d0                ImageControlTimeOut_ProcReset()
                0x02016da8                MWin_DrawClientFrame(unsigned int)
                0x02019504                MWin_RefreshVideoFullScreen(bool)
                0x02016e94                MWin_DrawClientBG(unsigned int)
                0x02016fa8                MWin_TransWindow(unsigned int)
 .text          0x02019b4c      0x630 resume.o
                0x02019b4c                Resume_Init()
                0x02019e54                Resume_Restore()
                0x02019cc4                Resume_Backup(bool)
                0x0201a16c                Resume_isEnabled()
 .text          0x0201a17c      0xf48 shell.o
                0x0201a45c                Shell_AutoDetect()
                0x0201a5ec                Shell_ReadFile(char const*, void**, int*)
                0x0201a378                Shell_FindShellPath()
                0x0201add8                Shell_ReadMSPINI(char const*, char**, int*)
                0x0201a510                Shell_AutoDetect_EXFS()
                0x0201b030                Shell_OpenMSPData(char const*)
                0x0201a17c                Shell_FindShellPath_FindIns(char*)
                0x0201b034                Shell_OpenMSPBIN(char const*)
                0x0201aa78                Shell_ReadHeadMSP(char*, void*, int)
                0x0201ac0c                Shell_ReadMSP(char const*, void**, int*)
                0x0201ae8c                Shell_OpenMSP(char const*)
                0x0201a888                Shell_EnumMSP()
 .text          0x0201b0c4      0x358 strpcm.o
                0x0201b3e8                strpcmGetVolume16()
                0x0201b270                strpcmStop()
                0x0201b12c                strpcmStart(bool, unsigned int, unsigned int, unsigned int, unsigned int)
                0x0201b40c                strpcmGetPause()
                0x0201b3ac                strpcmSetVolume16(int)
                0x0201b3f8                strpcmSetPause(bool)
                0x0201b0c4                InitInterrupts()
 .text          0x0201b41c      0x11c strtool.o
                0x0201b4c8                StrAppend(char*, char const*)
                0x0201b41c                StrCopy(char const*, char*)
                0x0201b46c                isStrEqual(char const*, char const*)
 .text          0x0201b538      0x780 thumb.o
                0x0201bb20                thumbGetImage64(int)
                0x0201bca8                thumbGetDrawed()
                0x0201b9b8                thumbChangeCursorIndex(int)
                0x0201bc78                thumbExists()
                0x0201b990                thumbReturnImage()
                0x0201b898                thumbChangePath()
 .text          0x0201bcb8      0x428 unicode.o
                0x0201bf30                StrConvert_Ank2Unicode(char const*, unsigned short*)
                0x0201c01c                StrConvert_Local2Unicode(char const*, unsigned short*)
                0x0201be60                Unicode_Init(unsigned char*, unsigned char*)
                0x0201bd08                Unicode_isEqual(unsigned short const*, unsigned short const*)
                0x0201bf58                StrConvert_UTF82Unicode(char const*, unsigned short*)
                0x0201bd64                Unicode_StrAppend(unsigned short*, unsigned short const*)
                0x0201bcb8                Unicode_StrCopy(unsigned short const*, unsigned short*)
                0x0201bdd4                Unicode_Free()
 .text          0x0201c0e0      0x2c4 zlibhelp.o
                0x0201c24c                zlibdecompress(TZLIBData*)
                0x0201c0f0                zlibcompress(TZLIBData*, unsigned int)
                0x0201c0e0                compressBound
 .text          0x0201c3a4      0x40c cglb15.o
                0x0201c76c                CglB15::BitBlt(CglCanvas*, int, int, int, int, int, int) const
                0x0201c6dc                CglB15::~CglB15()
                0x0201c71c                CglB15::~CglB15()
                0x0201c3a4                CglB15::CglB15(unsigned char const*, int)
                0x0201c540                CglB15::CglB15(unsigned char const*, int)
                0x0201c75c                CglB15::GetWidth() const
                0x0201c764                CglB15::GetHeight() const
 .text          0x0201c7b0     0x1080 cglcanvas.o
                0x0201d258                CglCanvas::MoveTo(int, int)
                0x0201ceb4                CglCanvas::GetPixel(int, int) const
                0x0201d620                CglCanvas::BitBltBeta(CglCanvas*, int, int, int, int, int, int) const
                0x0201d57c                CglCanvas::TextOutW(int, int, unsigned short const*) const
                0x0201d4d8                CglCanvas::TextOutL(int, int, char const*) const
                0x0201c850                CglCanvas::SetVRAMBuf(unsigned short*, int, int, EPixelFormat)
                0x0201cd2c                CglCanvas::SetPixel(int, int, unsigned short)
                0x0201d464                CglCanvas::TextOutA(int, int, char const*) const
                0x0201ceec                CglCanvas::SetAALineFlag(bool)
                0x0201d604                CglCanvas::SetCglUnicode(void*)
                0x0201ccc0                CglCanvas::GetWidth() const
                0x0201d70c                CglCanvas::BitBltTrans(CglCanvas*, int, int, int, int, int, int) const
                0x0201d448                CglCanvas::SetFontTextColor(unsigned short)
                0x0201d2a8                CglCanvas::FillBox(int, int, int, int)
                0x0201d5e8                CglCanvas::SetCglFont(void*)
                0x0201c7b0                CglCanvas::~CglCanvas()
                0x0201c948                CglCanvas::CglCanvas(unsigned short*, int, int, EPixelFormat)
                0x0201cee4                CglCanvas::SetColor(unsigned short)
                0x0201d264                CglCanvas::LineTo(int, int)
                0x0201ccc8                CglCanvas::GetHeight() const
                0x0201d320                CglCanvas::DrawBox(int, int, int, int)
                0x0201ccd0                CglCanvas::GetScanLine(int) const
                0x0201cd64                CglCanvas::SetPixelAlpha(int, int, unsigned short, int)
                0x0201ccf8                CglCanvas::isInsidePosition(int, int) const
                0x0201cb04                CglCanvas::CglCanvas(unsigned short*, int, int, EPixelFormat)
                0x0201d42c                CglCanvas::SetFontBGColor(unsigned short)
                0x0201ce18                CglCanvas::SetPixelAlphaAdd(int, int, unsigned short, int)
                0x0201d7f0                CglCanvas::BitBlt(CglCanvas*, int, int, int, int, int, int, bool) const
                0x0201cef4                CglCanvas::DrawLine(int, int, int, int)
                0x0201c7fc                CglCanvas::~CglCanvas()
                0x0201c848                CglCanvas::GetVRAMBuf() const
 .text          0x0201d830      0x88c cglfont.o
                0x0201ddc8                CglFont::SetTextColor(unsigned short)
                0x0201dc90                CglFont::DrawFont1bpp(CglCanvas*, int, int, unsigned char const*) const
                0x0201dde4                CglFont::SetAlphaBlend(bool)
                0x0201ddec                CglFont::DrawFont2bpp(CglCanvas*, int, int, unsigned char const*) const
                0x0201dddc                CglFont::SetTransparent(bool)
                0x0201d830                CglFont::CglFont(unsigned char const*, int)
                0x0201dc28                CglFont::~CglFont()
                0x0201dc54                CglFont::~CglFont()
                0x0201ddb0                CglFont::GetFontHeight() const
                0x0201dc80                CglFont::GetBulkData(unsigned short) const
                0x0201dd88                CglFont::GetFontWidth(unsigned short) const
                0x0201ddc0                CglFont::SetBGColor(unsigned short)
                0x0201e038                CglFont::DrawFont(CglCanvas*, int, int, unsigned short) const
                0x0201da2c                CglFont::CglFont(unsigned char const*, int)
                0x0201ddd0                CglFont::SetPadding(int, int)
 .text          0x0201e0bc      0xa8c cglscreenmain.o
                0x0201e160                CglScreenMain::SetTargetPage(EScrMainID)
                0x0201e0bc                CglScreenMain::~CglScreenMain()
                0x0201e81c                CglScreenMain::CopyFullViewToBack()
                0x0201e2d0                CglScreenMain::Flip(bool)
                0x0201e11c                CglScreenMain::GetVRAMBuf(EScrMainID) const
                0x0201e958                CglScreenMain::GetWideFlag()
                0x0201e5d8                CglScreenMain::CglScreenMain()
                0x0201e394                CglScreenMain::CglScreenMain()
                0x0201e0ec                CglScreenMain::~CglScreenMain()
                0x0201e960                CglScreenMain::SetViewSize(int, int)
                0x0201ea2c                CglScreenMain::SetViewport(int, int, float, float)
                0x0201e8a4                CglScreenMain::SetWideFlag(bool)
                0x0201e214                CglScreenMain::SetBlendLevelManual(int, int)
                0x0201e2a8                CglScreenMain::SetBlendLevel(int)
                0x0201e860                CglScreenMain::CopyFullBackToView()
 .text          0x0201eb48      0x434 cglscreenoverlay.o
                0x0201ed6c                CglScreenMainOverlay::CglScreenMainOverlay()
                0x0201eb48                CglScreenMainOverlay::~CglScreenMainOverlay()
                0x0201ed58                CglScreenMainOverlay::SetVisible(bool)
                0x0201ebb0                MainDisplay_Init(bool, bool, unsigned short)
                0x0201eba8                CglScreenMainOverlay::GetVRAMBuf() const
                0x0201eb78                CglScreenMainOverlay::~CglScreenMainOverlay()
                0x0201ee74                CglScreenMainOverlay::CglScreenMainOverlay()
 .text          0x0201ef7c      0x48c cglscreensub.o
                0x0201efdc                CglScreenSub::GetVRAMBuf() const
                0x0201f1cc                CglScreenSub::SetFlipMode(unsigned int)
                0x0201f1e0                CglScreenSub::CglScreenSub()
                0x0201efe4                SubDisplay_Init(bool, unsigned short, unsigned int)
                0x0201efac                CglScreenSub::~CglScreenSub()
                0x0201ef7c                CglScreenSub::~CglScreenSub()
                0x0201f2f4                CglScreenSub::CglScreenSub()
 .text          0x0201f408      0x148 cglstream.o
                0x0201f464                CglStream::Readu8()
                0x0201f414                CglStream::CglStream(unsigned char const*, int)
                0x0201f428                CglStream::GetOffset() const
                0x0201f4fc                CglStream::ReadBuffer(void*, int)
                0x0201f494                CglStream::Readu16()
                0x0201f44c                CglStream::eof() const
                0x0201f430                CglStream::SetOffset(int)
                0x0201f424                CglStream::~CglStream()
                0x0201f408                CglStream::CglStream(unsigned char const*, int)
                0x0201f420                CglStream::~CglStream()
                0x0201f444                CglStream::GetSize() const
                0x0201f4c0                CglStream::Readu32()
 .text          0x0201f550      0x3c8 cgltgf.o
                0x0201f7d0                CglTGF::GetWidth() const
                0x0201f550                CglTGF::CglTGF(unsigned char const*, int)
                0x0201f790                CglTGF::~CglTGF()
                0x0201f7b0                CglTGF::~CglTGF()
                0x0201f7e0                CglTGF::BitBlt(CglCanvas*, int, int) const
                0x0201f670                CglTGF::CglTGF(unsigned char const*, int)
                0x0201f7d8                CglTGF::GetHeight() const
 .text          0x0201f918      0x340 cglunicode.o
                0x0201f918                CglUnicode::CglUnicode(unsigned char const*, int)
                0x0201fc00                CglUnicode::~CglUnicode()
                0x0201fc20                CglUnicode::isAnkChar(unsigned char) const
                0x0201fc30                CglUnicode::GetUnicode(unsigned short) const
                0x0201fa7c                CglUnicode::CglUnicode(unsigned char const*, int)
                0x0201fbe0                CglUnicode::~CglUnicode()
 .text          0x0201fc58      0x264 glglobal.o
                0x0201fe60                glDebugPrintf(char const*, ...)
                0x0201fc58                glDefaultMemorySetting()
                0x0201fdd0                glDefaultClassFree()
                0x0201fe50                glSetFuncDebugPrint(void (*)(char const*))
                0x0201fca8                glDefaultClassCreate()
 .text          0x0201febc      0x374 glmemtool.o
                0x02020040                glMemSet8CPU(unsigned char, void*, unsigned int)
                0x0201febc                glMemCopy16CPU(void*, void*, unsigned int)
                0x0201ff2c                glMemCopy32CPU(void*, void*, unsigned int)
                0x0201ff30                glMemSet16CPU(unsigned short, void*, unsigned int)
                0x0201ffc0                glMemSet32CPU(unsigned int, void*, unsigned int)
                0x020200c8                glsafemalloc_halt()
                0x020200e4                glsafemalloc(int)
                0x020200b4                glMemCopy32swi256bit(void*, void*, unsigned int)
                0x02020208                glsafefree(void*)
 .text          0x02020230      0xb6c clibdpg.o
                0x02020338                Clibdpg::LoadDPGINFO(CStream*)
                0x02020b68                Clibdpg::MovieProcDecode(unsigned long long)
                0x02020d60                Clibdpg::GetFrameNum()
                0x02020230                Clibdpg::GetDPGAudioFormat()
                0x02020bcc                Clibdpg::SetFrame(int)
                0x02020d88                Clibdpg::GetHeight()
                0x02020d74                Clibdpg::GetWidth()
                0x020202bc                Clibdpg::~Clibdpg()
                0x02020240                Clibdpg::~Clibdpg()
                0x020206d8                Clibdpg::Clibdpg(CStream*, CStream*)
                0x02020920                Clibdpg::Clibdpg(CStream*, CStream*)
                0x02020b7c                Clibdpg::AudioDecode(short*, short*)
 .text          0x02020d9c     0x26f0 clibmpg.o
                0x0202258c                Clibmpg::ProcDecode(unsigned long long)
                0x02020e9c                Clibmpg::GetWidth() const
                0x02021a3c                Clibmpg::YUV420toBGR15Fix_CopyLU(unsigned char const*, unsigned char const*, unsigned char const*, unsigned short*)
                0x02022d34                Clibmpg::ProcSequence()
                0x020232f8                Clibmpg::Clibmpg(CStream*, unsigned int, unsigned int, unsigned int, EMPGPixelFormat)
                0x02020ed4                Clibmpg::YUV420toBGR15_CopyFull(unsigned char*, unsigned char*, unsigned char*, unsigned short*)
                0x02023164                Clibmpg::Clibmpg(CStream*, unsigned int, unsigned int, unsigned int, EMPGPixelFormat)
                0x02020e54                Clibmpg::ProcReadBuffer()
                0x020222b0                Clibmpg::YUV420toBGR15Fix_CopyLD(unsigned char const*, unsigned char const*, unsigned char const*, unsigned short*)
                0x02020eac                Clibmpg::SetVideoDelayms(int)
                0x02022a0c                Clibmpg::debug_tableout()
                0x02022de4                Clibmpg::Reopen(unsigned int, unsigned int)
                0x02022a10                Clibmpg::YUV420toBGR15_Init(int, int)
                0x02021ffc                Clibmpg::YUV420toBGR15Fix_CopyRU(unsigned char const*, unsigned char const*, unsigned char const*, unsigned short*)
                0x02021070                Clibmpg::YUV420toBGR15Fix_CopyFull(unsigned char const*, unsigned char const*, unsigned char const*, unsigned short*)
                0x02020df8                Clibmpg::~Clibmpg()
                0x02021654                Clibmpg::YUV420toBGR15Fix_CopyHalf(unsigned char const*, unsigned char const*, unsigned char const*, unsigned short*)
                0x02022a04                Clibmpg::GetFrameNum()
                0x02020ea4                Clibmpg::GetHeight() const
                0x02022e98                Clibmpg::ProcMoveFrameGOP(unsigned int, unsigned long long, unsigned int, unsigned int)
                0x02021d00                Clibmpg::YUV420toBGR15Fix_CopyRD(unsigned char const*, unsigned char const*, unsigned char const*, unsigned short*)
                0x02020d9c                Clibmpg::~Clibmpg()
                0x0202301c                Clibmpg::ProcMoveFrame(unsigned int, unsigned long long)
 .text          0x0202348c      0x6c0 plug_dpg.o
                0x020236e4                DPG_GetCurrentFrameCount()
                0x02023890                DPG_GetHeight()
                0x02023728                DPG_GetSampleRate()
                0x020238e8                DPG_fread_flash()
                0x0202348c                FreeDPG()
                0x02023874                DPG_GetWidth()
                0x02023790                UpdateDPG_Video(unsigned long long)
                0x020238ac                DPG_fread()
                0x02023924                DPG_GetInfoIndexCount()
                0x02023700                DPG_GetTotalFrameCount()
                0x02023b28                DPG_GetInfoStrUTF8(int, char*, int)
                0x02023b30                DPG_GetDPGAudioFormat()
                0x0202373c                DPG_GetChannelCount()
                0x02023750                DPG_GetSamplePerFrame()
                0x02023854                DPG_SetFrameCount(unsigned int)
                0x0202392c                DPG_GetInfoStrL(int, char*, int)
                0x0202353c                StartDPG(int, int)
                0x02023714                DPG_GetFPS()
                0x02023b20                DPG_GetInfoStrW(int, unsigned short*, int)
                0x02023810                UpdateDPG_Audio(short*, short*)
 .text          0x02023b4c      0x398 plug_fpk.o
                0x02023ed4                FPK_GetInfoStrW(int, unsigned short*, int)
                0x02023b4c                StartFPK(int)
                0x02023edc                FPK_GetInfoStrUTF8(int, char*, int)
                0x02023ea0                FPK_GetInfoStrL(int, char*, int)
                0x02023e98                FPK_GetInfoIndexCount()
                0x02023e60                FreeFPK()
 .text          0x02023ee4      0xb44 plug_gmegbs.o
                0x020248a4                GMEGBS_GetSamplePerFrame()
                0x020249bc                GMEGBS_GetInfoStrW(int, unsigned short*, int)
                0x020249c4                GMEGBS_GetInfoStrUTF8(int, char*, int)
                0x020247d8                GMEGBS_SetPosOffset(int)
                0x020248bc                GMEGBS_GetInfoStrL(int, char*, int)
                0x0202489c                GMEGBS_GetChannelCount()
                0x020247c8                GMEGBS_GetPosOffset()
                0x02024628                UpdateGMEGBS(short*, short*)
                0x020242b0                FreeGMEGBS()
                0x0202488c                GMEGBS_GetSampleRate()
                0x020247b8                GMEGBS_GetPosMax()
                0x020248b4                GMEGBS_GetInfoIndexCount()
                0x02024300                StartGMEGBS(int, int)
 .text          0x02024a28      0xf44 plug_gmensf.o
                0x02024e44                StartGMENSF(int, int)
                0x020255c4                GMENSF_SetPosOffset(int)
                0x020256a8                GMENSF_GetInfoStrL(int, char*, int)
                0x020255a4                GMENSF_GetPosMax()
                0x02024df4                FreeGMENSF()
                0x02025690                GMENSF_GetSamplePerFrame()
                0x02025678                GMENSF_GetSampleRate()
                0x02025414                UpdateGMENSF(short*, short*)
                0x020256a0                GMENSF_GetInfoIndexCount()
                0x02025900                GMENSF_GetInfoStrW(int, unsigned short*, int)
                0x02025908                GMENSF_GetInfoStrUTF8(int, char*, int)
                0x020255b4                GMENSF_GetPosOffset()
                0x02025688                GMENSF_GetChannelCount()
 .text          0x0202596c      0x56c plug_gsm.o
                0x02025e4c                GSM_fread_flash
                0x02025cb0                GSM_GetChannelCount
                0x02025974                FreeGSM
                0x0202596c                UpdateGSM
                0x02025cc0                GSM_GetSampleRate
                0x02025cd8                GSM_SetPosition
                0x02025cd0                GSM_GetSamplePerFrame
                0x02025e10                GSM_fread
                0x020259f4                StartGSM
                0x02025d7c                GSM_LoadReadBuffer
 .text          0x02025ed8      0x394 plug_mp2.o
                0x02025ed8                UpdateMP2(short*, short*)
                0x020261dc                MP2_fread_flash()
                0x02026064                MP2_GetSamplePerFrame()
                0x020260e8                MP2_LoadReadBuffer()
                0x0202606c                MP2_SetPosition(double, long long)
                0x02025f60                StartMP2(CStream*)
                0x02025ee0                FreeMP2()
                0x0202616c                MP2_fread()
 .text          0x0202626c     0x129c plug_ndsrom.o
                0x0202626c                chkmd5(unsigned int)
                0x02026ee4                BootNDSROM(unsigned int)
 .text          0x02027508     0x17ac plug_text.o
                0x020282e0                Text_GetLineHeight()
                0x020282d0                Text_GetLineCount()
                0x0202754c                StartText(int, unsigned int, unsigned int)
                0x02028264                Text_SetLine(int, TRect)
                0x02028300                Text_BookmarkDialog(EBookmarkDialogMode)
                0x02027508                FreeText()
                0x020282c0                Text_GetLine()
                0x020282f0                Text_GetDispLineCount()
                0x02028060                Text_RefreshScreen(unsigned short*, unsigned int, TRect)
 .text          0x02028cb4      0x920 plug_text_bookmark.o
                0x02028cb4                exists(char*)
                0x02028fe4                Bookmark_GetEnabled()
                0x02029350                Bookmark_Start()
                0x02028ff4                Bookmark_End()
                0x02029514                Bookmark_GetDateTimeStructFrom32(unsigned int)
                0x02028cf8                Bookmark_Init()
                0x0202918c                Bookmark_GetCurrent()
                0x02029314                Bookmark_CurrentResumeBackup()
                0x020291d8                Bookmark_CurrentResumeRestore()
                0x0202923c                Bookmark_GetDateTime32FromIPC()
                0x02029044                Bookmark_Save()
 .text          0x020295d4      0xd30 md5c.o
                0x0202a27c                MD5Final
                0x020295d4                MD5Init
                0x0202a19c                MD5Update
 .text          0x0202a304      0x3f4 adler32.o
                0x0202a304                adler32
                0x0202a63c                adler32_combine
 .text          0x0202a6f8      0x910 crc32.o
                0x0202a704                crc32
                0x0202af24                crc32_combine
                0x0202a6f8                get_crc_table
 .text          0x0202b008     0x167c deflate.o
                0x0202b418                deflate
                0x0202b2bc                deflateTune
                0x0202b230                deflateSetHeader
                0x0202b120                deflateSetDictionary
                0x0202b304                deflateBound
                0x0202bc54                deflateInit_
                0x0202b998                deflateInit2_
                0x0202b86c                deflateReset
                0x0202b264                deflatePrime
                0x0202bc88                deflateCopy
                0x0202b778                deflateParams
                0x0202b008                deflateEnd
 .text          0x0202c684     0x12a0 infback.o
                0x0202c684                inflateBackInit_
                0x0202c774                inflateBack
                0x0202d8d8                inflateBackEnd
 .text          0x0202d924      0x560 inffast.o
                0x0202d924                inflate_fast
 .text          0x0202de84     0x1cfc inflate.o
                0x0202fa00                inflateCopy
                0x0202e1cc                inflate
                0x0202f9c0                inflateSyncPoint
                0x0202f7c8                inflateGetHeader
                0x0202e074                inflateInit_
                0x0202df0c                inflatePrime
                0x0202de84                inflateReset
                0x0202f880                inflateSync
                0x0202f6d4                inflateSetDictionary
                0x0202f664                inflateEnd
                0x0202df74                inflateInit2_
 .text          0x0202fb80      0x5c8 inftrees.o
                0x0202fb80                inflate_table
 .text          0x02030148     0x2218 trees.o
                0x02031c20                _tr_flush_block
                0x02031ae0                _tr_stored_block
                0x020301f0                _tr_init
                0x02032264                _tr_tally
                0x020312d0                _tr_align
 .text          0x02032360       0x54 zutil.o
                0x02032360                zlibVersion
                0x0203236c                zlibCompileFlags
                0x020323a0                zcfree
                0x02032378                zError
                0x0203238c                zcalloc
 *fill*         0x020323b4        0xc ff
 .text          0x020323c0      0x220 CP15.o
                0x0203251c                CP15_CleanAndFlushDCacheEntry
                0x02032490                CP15_SetRegion3
                0x02032488                CP15_SetRegion2
                0x0203257c                CP15_SetDTCM
                0x020324e0                CP15_FlushDCacheEntry
                0x02032428                CP15_SetDataPermissions
                0x02032574                CP15_GetITCM
                0x02032564                CP15_SetICacheLockdown
                0x020323d0                CP15_GetTCMSize
                0x020324f0                CP15_CleanAndFlushDCache
                0x020323f8                CP15_SetDataCachable
                0x020323c0                CP15_GetID
                0x020324a0                CP15_SetRegion5
                0x020323f0                CP15_GetInstructionCachable
                0x02032480                CP15_SetRegion1
                0x02032420                CP15_GetInstructionPermissions
                0x02032540                CP15_WaitForInterrupt
                0x02032534                CP15_DrainWriteBuffer
                0x020324c4                CP15_FlushICacheEntry
                0x02032448                CP15_GetRegion2
                0x0203252c                CP15_CleanAndFlushDCacheEntryByIndex
                0x02032458                CP15_GetRegion4
                0x020323e8                CP15_GetDataCachable
                0x020324d4                CP15_FlushDCache
                0x02032400                CP15_SetInstructionCachable
                0x0203255c                CP15_SetDCacheLockdown
                0x02032498                CP15_SetRegion4
                0x0203254c                CP15_GetDCacheLockdown
                0x02032470                CP15_GetRegion7
                0x020323d8                CP15_GetControl
                0x02032438                CP15_GetRegion0
                0x02032524                CP15_CleanDCacheEntryByIndex
                0x02032430                CP15_SetInstructionPermissions
                0x02032410                CP15_SetDataBufferable
                0x02032468                CP15_GetRegion6
                0x0203258c                CP15_ITCMEnableDefault
                0x020324e8                CP15_CleanDCacheEntry
                0x020324a8                CP15_SetRegion6
                0x020323c8                CP15_GetCacheType
                0x02032554                CP15_GetICacheLockdown
                0x02032478                CP15_SetRegion0
                0x0203256c                CP15_GetDTCM
                0x02032408                CP15_GetDataBufferable
                0x02032440                CP15_GetRegion1
                0x020323e0                CP15_SetControl
                0x02032450                CP15_GetRegion3
                0x020324cc                CP15_PrefetchICacheLine
                0x020324b0                CP15_SetRegion7
                0x02032584                CP15_SetITCM
                0x02032460                CP15_GetRegion5
                0x020324b8                CP15_FlushICache
                0x02032418                CP15_GetDataPermissions
 .text          0x020325e0      0x170 CopyJmp.o
                0x020325e0                bxr0
                0x02032664                dsCardi_ReadCard
                0x020325f0                DS_Read
 .text          0x02032750       0xb8 linkreset_arm9.o
                0x02032750                LinkReset_ARM9
 *fill*         0x02032808        0x8 ff
 .text          0x02032810      0x220 glCP15.o
                0x02032908                glCP15_FlushICache
                0x02032840                glCP15_GetInstructionCachable
                0x020328b0                glCP15_GetRegion5
                0x02032850                glCP15_SetInstructionCachable
                0x02032848                glCP15_SetDataCachable
                0x020328f0                glCP15_SetRegion5
                0x02032820                glCP15_GetTCMSize
                0x02032868                glCP15_GetDataPermissions
                0x02032860                glCP15_SetDataBufferable
                0x02032974                glCP15_CleanDCacheEntryByIndex
                0x02032938                glCP15_CleanDCacheEntry
                0x02032830                glCP15_SetControl
                0x02032810                glCP15_GetID
                0x02032890                glCP15_GetRegion1
                0x02032940                glCP15_CleanAndFlushDCache
                0x020328e8                glCP15_SetRegion4
                0x0203296c                glCP15_CleanAndFlushDCacheEntry
                0x02032838                glCP15_GetDataCachable
                0x02032880                glCP15_SetInstructionPermissions
                0x020329b4                glCP15_SetICacheLockdown
                0x020328a8                glCP15_GetRegion4
                0x0203299c                glCP15_GetDCacheLockdown
                0x020328d8                glCP15_SetRegion2
                0x020329d4                glCP15_SetITCM
                0x020328e0                glCP15_SetRegion3
                0x02032818                glCP15_GetCacheType
                0x02032878                glCP15_SetDataPermissions
                0x02032930                glCP15_FlushDCacheEntry
                0x02032858                glCP15_GetDataBufferable
                0x020328b8                glCP15_GetRegion6
                0x0203297c                glCP15_CleanAndFlushDCacheEntryByIndex
                0x02032898                glCP15_GetRegion2
                0x02032900                glCP15_SetRegion7
                0x0203291c                glCP15_PrefetchICacheLine
                0x020329a4                glCP15_GetICacheLockdown
                0x020328a0                glCP15_GetRegion3
                0x020329ac                glCP15_SetDCacheLockdown
                0x02032984                glCP15_DrainWriteBuffer
                0x020329c4                glCP15_GetITCM
                0x020328c0                glCP15_GetRegion7
                0x02032914                glCP15_FlushICacheEntry
                0x02032990                glCP15_WaitForInterrupt
                0x020328d0                glCP15_SetRegion1
                0x020328c8                glCP15_SetRegion0
                0x020329dc                glCP15_ITCMEnableDefault
                0x020328f8                glCP15_SetRegion6
                0x020329cc                glCP15_SetDTCM
                0x02032870                glCP15_GetInstructionPermissions
                0x02032888                glCP15_GetRegion0
                0x02032924                glCP15_FlushDCache
                0x020329bc                glCP15_GetDTCM
                0x02032828                glCP15_GetControl
 .text          0x02032a30      0x758 ../build/gba_nds_fat_2006-02-09_unicode_M3SD_ReadAlignDetect/crc.o
                0x02032f88                sdDataCrcRePack
                0x02032b54                sdmHalf2Bits
                0x02032a30                sdCRC16L
                0x02032b84                sdCRC16X
                0x02032d14                sdDataBlockCrcVerify
                0x02032a9c                sdCRC16L_Table
                0x020330bc                sdDataLineRePack
                0x02032c70                sdCrcRePack32
                0x02032aec                sdCRC7L
 .text          0x02033188      0x3e8 ../build/gba_nds_fat_2006-02-09_unicode_M3SD_ReadAlignDetect/disc_io.o
                0x020331f0                disc_WriteSectors
                0x020332a8                disc_setGbaSlotInterface
                0x0203322c                disc_ClearStatus
                0x02033258                disc_Shutdown
                0x02033348                disc_setDsSlotInterface
                0x0203328c                disc_HostType
                0x02033188                disc_IsInserted
                0x020331b4                disc_ReadSectors
                0x020334b0                disc_Init
 .text          0x02033570       0x5c ../build/gba_nds_fat_2006-02-09_unicode_M3SD_ReadAlignDetect/fastreaddata512.o
                0x02033570                sdmFastReadData512
 .text          0x020335cc     0x58e0 ../build/gba_nds_fat_2006-02-09_unicode_M3SD_ReadAlignDetect/gba_nds_fat.o
                0x020352f8                FAT_fwrite
                0x02033664                FAT_ClustToSect_extern
                0x02037de0                FAT_FindFirstFile
                0x02033630                getRTCtoFileDate
                0x02033a68                FAT_ReadWriteFatEntryBuffered
                0x02033fa8                FAT_GetFileSize
                0x02033834                FAT_WriteFatEntry
                0x02033f44                FAT_GetLongFilenameUnicode
                0x0203894c                FAT_remove
                0x02034abc                FAT_fgetc
                0x02034770                FAT_fread_fast
                0x02037f1c                FAT_fopen
                0x0203584c                FAT_fputc
                0x02035808                FAT_fputs
                0x020364ac                FAT_DirEntFromPath
                0x020378a0                FAT_mkdir
                0x020340c0                FAT_GetFileSystemTotalSize
                0x020335cc                ucase
                0x02034fc0                FAT_fclose
                0x02033f0c                FAT_GetLongFilename
                0x020340f0                FAT_fseek
                0x020335e4                getRTCtoFileTime
                0x02033e40                FAT_GetFilename
                0x02033d54                FAT_WriteFatEntryFlushBuffer
                0x02036b30                FAT_FileExists
                0x020340d0                FAT_ftell
                0x02034b70                FAT_InitFiles
                0x02036a34                FAT_chdir
                0x02033688                FAT_NextCluster
                0x02034028                FAT_GetFileCluster
                0x02036348                FAT_GetAlias
                0x02035218                FAT_LinkFreeCluster
                0x02033dbc                FAT_FirstFreeCluster
                0x020350fc                FAT_FreeFiles
                0x020362b4                FAT_FindNextFileLFN
                0x02036b90                FAT_AddDirEntry
                0x02034af0                FAT_GetAttrib
                0x02037ca4                FAT_FindNextFile
                0x0203514c                FAT_ClearLinks
                0x02036220                FAT_FindFirstFileLFN
                0x02034338                FAT_fread
                0x02035884                FAT_GetDirEntry
                0x02034ee4                FAT_fgets
                0x020340b0                FAT_GetFileSystemType
                0x02034a88                FAT_feof
 .text          0x02038eac      0x134 ../build/gba_nds_fat_2006-02-09_unicode_M3SD_ReadAlignDetect/io_DLMS.o
                0x02038ee4                DLMS_ReadSectors
                0x02038f8c                DLMS_Shutdown
                0x02038f38                DLMS_WriteSectors
                0x02038fb0                DLMS_StartUp
                0x02038eac                DLMS_IsInserted
                0x02038eb4                DLMS_ClearStatus
                0x02038fa4                DLMS_GetInterface
 .text          0x02038fe0      0xe54 ../build/gba_nds_fat_2006-02-09_unicode_M3SD_ReadAlignDetect/io_DLMS_asm.o
                0x02039c4c                DLMS_Write_s
                0x02039988                DLMS_Read_s
                0x020393dc                DLMS_stmd_s
                0x02039418                DLMS_Init_s
 .text          0x02039e34      0x8f0 ../build/gba_nds_fat_2006-02-09_unicode_M3SD_ReadAlignDetect/io_ewsd.o
                0x02039fa4                sdmWriteCmd
                0x0203a588                EWSD_WriteSectors
                0x0203a09c                sdDelay
                0x02039e60                sdmRead
                0x0203a244                sdmSendCommand
                0x0203a5ec                sdmReadBlock
                0x02039eac                sdmWaitStartBit
                0x0203a07c                EWSD_StartUp
                0x02039f24                sdPackArg
                0x02039f00                LSwapINT32
                0x02039f98                EWSD_GetInterface
                0x02039f4c                sdmFastReadData512C
                0x0203a468                sdmWriteBlock
                0x02039e34                sdmWrite
                0x02039eec                LSwapINT16
                0x0203a074                EWSD_Shutdown
                0x02039f90                EWSD_ClearStatus
                0x02039f44                sdmInitialize
                0x02039f74                EWSD_IsInserted
                0x0203a0d8                EWSD_ReadSectors
 .text          0x0203a724     0x21f0 ../build/gba_nds_fat_2006-02-09_unicode_M3SD_ReadAlignDetect/io_ezsd.o
                0x0203b09c                SD_ReadLoop
                0x0203a83c                SD_ReadResponse
                0x0203ac40                SD_R2Response
                0x0203b554                EZSD_ClearStatus
                0x0203b7f4                SD_WriteSingleBlock
                0x0203b17c                SD_WaitOK
                0x0203b55c                EZSD_GetInterface
                0x0203adec                SD_GetCSDStruct
                0x0203b570                SD_ReadMultiBlock
                0x0203b568                EZSD_Shutdown
                0x0203ac4c                SD_R3Response
                0x0203c0b4                EZSD_WriteSectors
                0x0203c104                SD_initial
                0x0203b738                SD_ReadSingleBlock
                0x0203c910                EZSD_StartUp
                0x0203b53c                EZSD_read1sector
                0x0203b544                EZSD_write1sector
                0x0203b240                SD_WriteData
                0x0203a7a0                SD_SendCommand
                0x0203a724                OpenWrite
                0x0203b008                SD_GetCIDStruct
                0x0203a728                CloseWrite
                0x0203b64c                EZSD_ReadSectors
                0x0203b54c                EZSD_IsInserted
                0x0203ac94                SD_ReadData
                0x0203a72c                SetNandControl
                0x0203ac34                SD_R16Response
                0x0203a730                cal_crc_CCITT
 .text          0x0203c914     0x3758 ../build/gba_nds_fat_2006-02-09_unicode_M3SD_ReadAlignDetect/io_g6.o
                0x0203cee0                ReadWordFunction
                0x0203cc4c                G6_GetInterface
                0x0203d660                EraseBlockFunc
                0x0203f004                WriteBlockFunc
                0x0203e3c0                VerifyBlockFunc
                0x0203dee8                G6_StartUp
                0x0203cbc8                G6_SelectSaver
                0x0203edc4                WriteWordFunction
                0x0203feb8                G6_CopyFunction
                0x0203d010                CheckNandInserted
                0x0203caf4                G6_ReadDMA
                0x0203d108                G6_SetChipReg
                0x0203da28                G6_IsInserted
                0x0203c99c                DMAWriteWordData
                0x0203dde4                BuildLookUpTable
                0x0203ca80                ECCCodeCommand
                0x0203cc58                CopyBackCommand
                0x0203d774                AllChipErase
                0x0203d190                G6_ClearStatus
                0x0203fc90                G6_WriteSectors
                0x0203d364                G6_Shutdown
                0x0203eb38                LabelFailBlock
                0x0203e6bc                G6_ReadSectors
                0x0203dc9c                BuildLookUpRoutine
                0x0203cd5c                ReadCommand
                0x0203c914                SelectOperation
 .text          0x0204006c      0x7d4 ../build/gba_nds_fat_2006-02-09_unicode_M3SD_ReadAlignDetect/io_m3cf.o
                0x02040138                M3CF_ReadSectors
                0x02040324                M3CF_WriteSectors
                0x0204006c                M3CF_IsInserted
                0x02040510                M3_Unlock
                0x02040660                M3CF_Shutdown
                0x020406fc                M3CF_StartUp
                0x0204009c                M3CF_ClearStatus
                0x02040654                M3CF_GetInterface
 .text          0x02040840      0xabc ../build/gba_nds_fat_2006-02-09_unicode_M3SD_ReadAlignDetect/io_m3sd.o
                0x02040ecc                M3SD_write1sector
                0x02040978                Hal4ATA_GetStatus
                0x02040ba0                M3SD_GetInterface
                0x020409c8                M3SD_IsInserted
                0x02040d34                M3SD_Shutdown
                0x02040bf0                Hal4ATA_WaitOnBusyNDrdy
                0x02040a08                M3SD_ClearStatus
                0x02040990                DMA3
                0x02040bac                Hal4ATA_WaitOnBusy
                0x02040d88                M3SD_StartUp
                0x02041198                M3SD_ReadSectors
                0x02040a5c                M3SD_Unlock
                0x02041148                M3SD_WriteSectors
                0x02040840                M3SD_read1sector
                0x02040c34                SendCommand
 .text          0x020412fc      0x214 ../build/gba_nds_fat_2006-02-09_unicode_M3SD_ReadAlignDetect/io_m3sd_asm.o
                0x02041384                SD_crc16
                0x02041464                SD_data_write
 .text          0x02041510      0x4d4 ../build/gba_nds_fat_2006-02-09_unicode_M3SD_ReadAlignDetect/io_mmcf.o
                0x020415f8                MMCF_ReadSectors
                0x02041534                MMCF_IsInserted
                0x02041520                MMCF_GetInterface
                0x020417f0                MMCF_WriteSectors
                0x02041510                MMCF_ClearStatus
                0x02041518                MMCF_StartUp
                0x0204152c                MMCF_Shutdown
 .text          0x020419e4      0x590 ../build/gba_nds_fat_2006-02-09_unicode_M3SD_ReadAlignDetect/io_mpcf.o
                0x020419e4                MPCF_IsInserted
                0x02041e88                MPCF_StartUp
                0x02041ed8                MPCF_Shutdown
                0x02041a14                MPCF_ClearStatus
                0x02041ab0                MPCF_ReadSectors
                0x02041ecc                MPCF_GetInterface
                0x02041c9c                MPCF_WriteSectors
 .text          0x02041f74      0x400 ../build/gba_nds_fat_2006-02-09_unicode_M3SD_ReadAlignDetect/io_mpsd.o
                0x02042000                sendcommand2
                0x02041fdc                MPSD_ClearStatus
                0x02041fec                MPSD_Unlock
                0x02041ff4                MPSD_GetInterface
                0x0204217c                MPSD_Shutdown
                0x02041fe4                MPSD_WriteSectors
                0x02041f74                send_byte2
                0x02042184                MPSD_StartUp
                0x0204220c                MPSD_read1sector
                0x02041fcc                MPSD_write1sector
                0x02041fb4                CLK
                0x020421a4                readdata
                0x020422ac                MPSD_ReadSectors
                0x02041fd4                MPSD_IsInserted
 .text          0x02042374       0x4c ../build/gba_nds_fat_2006-02-09_unicode_M3SD_ReadAlignDetect/io_mpsd_asm.o
                0x02042374                mpsd_crc7_s
 .text          0x020423c0     0x11cc ../build/gba_nds_fat_2006-02-09_unicode_M3SD_ReadAlignDetect/io_njsd.o
                0x02042698                _NJSD_writeSectors
                0x020423d4                NJSD_GetInterface
                0x02042c9c                _NJSD_clearStatus
                0x02042ac4                _NJSD_isInserted
                0x02042ddc                _NJSD_startup
                0x02042d3c                _NJSD_shutdown
                0x02042b04                _NJSD_readSectors
 .text          0x0204358c      0x2fc ../build/gba_nds_fat_2006-02-09_unicode_M3SD_ReadAlignDetect/io_njsd_common.o
                0x0204358c                _SD_CRC7
                0x020435fc                _SD_CRC16
                0x020436e8                _SD_InitCard
 .text          0x02043888      0x870 ../build/gba_nds_fat_2006-02-09_unicode_M3SD_ReadAlignDetect/io_nmmc.o
                0x020438c4                NMMC_IsInserted
                0x02043b50                Neo_EnableMMC
                0x02043db0                NMMC_WriteSectors
                0x020438e8                Neo_SendMMCCommand
                0x02043f50                NMMC_ReadSectors
                0x02043fac                Neo_InitMMC
                0x020438d4                NMMC_Shutdown
                0x02043a08                Neo_CheckMMCResponse
                0x02043c38                Neo_WriteMMCSector
                0x020438dc                NMMC_GetInterface
                0x020438cc                NMMC_ClearStatus
                0x02043888                Neo_SelectMMC
                0x020440f4                NMMC_StartUp
                0x02043e0c                Neo_ReadMMCSector
                0x02043a64                Neo_WriteMK2Config
 .text          0x020440f8       0xec ../build/gba_nds_fat_2006-02-09_unicode_M3SD_ReadAlignDetect/io_sccf.o
                0x0204417c                SCCF_StartUp
                0x02044170                SCCF_GetInterface
                0x020440f8                SCCF_Unlock
                0x02044160                SCCF_Shutdown
 .text          0x020441e4       0xe4 ../build/gba_nds_fat_2006-02-09_unicode_M3SD_ReadAlignDetect/io_scms.o
                0x020441f4                SCMS_ReadSectors
                0x02044254                SCMS_GetInterface
                0x02044260                SCMS_Unlock
                0x02044244                SCMS_Shutdown
                0x0204421c                SCMS_WriteSectors
                0x02044294                SCMS_StartUp
                0x020441e4                SCMS_IsInserted
 .text          0x020442c8      0x458 ../build/gba_nds_fat_2006-02-09_unicode_M3SD_ReadAlignDetect/io_scms_asm.o
                0x02044638                scms_WriteSector
                0x020446dc                scms_InitSCMode
                0x02044524                scms_sd_com_write_s
                0x020442c8                scms_sd_data_write_s
                0x02044338                scms_sd_data_read_s
                0x020444fc                scms_sd_com_read_s
                0x02044578                scms_SDCommand
                0x02044628                scms_get_resp
                0x020444b4                scms_sd_crc7_s
                0x02044704                scms_MemoryCard_IsInserted
                0x02044564                scms_send_clk
                0x020445c8                scms_ReadSector
                0x020443d4                scms_sd_crc16_s
 .text          0x02044720       0xe4 ../build/gba_nds_fat_2006-02-09_unicode_M3SD_ReadAlignDetect/io_scsd.o
                0x02044758                SCSD_WriteSectors
                0x02044780                SCSD_Shutdown
                0x02044790                SCSD_GetInterface
                0x020447d0                SCSD_StartUp
                0x02044730                SCSD_ReadSectors
                0x02044720                SCSD_IsInserted
                0x0204479c                SCSD_Unlock
 .text          0x02044804      0x45c ../build/gba_nds_fat_2006-02-09_unicode_M3SD_ReadAlignDetect/io_scsd_asm.o
                0x02044910                sd_crc16_s
                0x02044c18                InitSCMode
                0x02044c40                MemoryCard_IsInserted
                0x020449f0                sd_crc7_s
                0x02044a38                sd_com_read_s
                0x02044b64                get_resp
                0x02044874                sd_data_read_s
                0x02044ab4                SDCommand
                0x02044a60                sd_com_write_s
                0x02044aa0                send_clk
                0x02044b74                WriteSector
                0x02044b04                ReadSector
                0x02044804                sd_data_write_s
 .text          0x02044c60      0x110 ../build/gba_nds_fat_2006-02-09_unicode_M3SD_ReadAlignDetect/misc.o
                0x02044cd0                TFC_Command19
                0x02044d38                SDT_SetFlashCSConfig
                0x02044c60                rwDelay
                0x02044c8c                strupr
                0x02044d08                TFC_Command19_A
                0x02044d20                SDT_Command1ARead
 .text          0x02044d70       0x70 ../build/gba_nds_fat_2006-02-09_unicode_M3SD_ReadAlignDetect/sdbasic.o
                0x02044da8                SDB_SDM_GetResponse
                0x02044d88                SDB_SDM_SetDataOut
                0x02044d98                SDB_SDM_CheckCard
                0x02044dcc                SDB_InitEwinSD
                0x02044d70                SDB_SDM_GetDataOut
                0x02044db8                SDB_SetEwinSD
 .text          0x02044de0       0xc4 ../build/libmpeg2/alloc.o
                0x02044e88                mpeg2_malloc_hooks
                0x02044de0                mpeg2_malloc
                0x02044e48                mpeg2_free
 .text          0x02044ea4      0xb94 ../build/libmpeg2/decode.o
                0x0204590c                mpeg2_init
                0x02045248                mpeg2_close
                0x02044eac                mpeg2_buffer
                0x02044fbc                mpeg2_stride
                0x02045550                mpeg2_seek_header
                0x02044ea4                mpeg2_info
                0x0204512c                mpeg2_slice_region
                0x02044eb8                mpeg2_getpos
                0x020451d4                mpeg2_reset
                0x02045110                mpeg2_skip
                0x0204517c                mpeg2_tag_picture
                0x0204564c                mpeg2_parse
                0x02045294                mpeg2_parse_header
                0x02044f58                mpeg2_convert
                0x02045108                mpeg2_custom_fbuf
                0x02045038                mpeg2_set_buf
                0x020451b4                mpeg2_accel
 .text          0x02045a38     0x1ae8 ../build/libmpeg2/header.o
                0x020460dc                mpeg2_set_fbuf
                0x020466a8                mpeg2_header_extension
                0x02046150                mpeg2_header_picture_start
                0x020468b4                mpeg2_header_gop_finalize
                0x02045a38                mpeg2_header_state_init
                0x0204719c                mpeg2_header_sequence_finalize
                0x02046038                mpeg2_header_gop
                0x02045bf8                mpeg2_reset_info
                0x02046778                mpeg2_header_end
                0x02046210                mpeg2_header_picture
                0x02045c14                mpeg2_header_sequence
                0x020466fc                mpeg2_header_user_data
                0x0204690c                mpeg2_header_slice_start
                0x02046d70                mpeg2_header_picture_finalize
 .text          0x02047520       0x90 ../build/libmpeg2/idct.o
                0x02047558                mpeg2_idct_SetClipMode
                0x02047520                mpeg2_idct_init
 .text          0x020475b0       0x50 ../build/libmpeg2/idct_clip.o
                0x020475b0                mpeg2_idct_init_cliptable
 .text          0x02047600     0x1a68 ../build/libmpeg2/motion_comp.o
                0x02047600                mpeg2_mc_init
 .text          0x02049068      0x144 ../build/libmpeg2/slice.o
                0x02049068                mpeg2_init_fbuf
 .text          0x020491ac     0x13f4 ../build/libgme/Blip_Buffer.o
                0x02049244                Blip_Buffer::bass_freq(int)
                0x0204a028                Blip_Synth_::volume_unit(double)
                0x020493dc                blip_eq_t::generate(float*, int) const
                0x02049230                Blip_Buffer::~Blip_Buffer()
                0x020493b0                Blip_Synth_::Blip_Synth_(short*, int)
                0x02049ad8                Blip_Buffer::clear(int)
                0x0204a2d4                Blip_Synth_::treble_eq(blip_eq_t const&)
                0x02049288                Blip_Buffer::clock_rate_factor(long) const
                0x02049ed4                Blip_Buffer::read_samples(short*, long, int)
                0x0204921c                Blip_Buffer::~Blip_Buffer()
                0x02049b18                Blip_Buffer::end_frame(long)
                0x02049a6c                Blip_Buffer::mix_samples(short const*, long)
                0x02049b9c                Blip_Synth_::adjust_impulse()
                0x02049b58                Blip_Buffer::remove_silence(long)
                0x02049384                Blip_Synth_::Blip_Synth_(short*, int)
                0x020491e4                Blip_Buffer::Blip_Buffer()
                0x02049c44                Blip_Buffer::remove_samples(long)
                0x02049338                Blip_Buffer::count_samples(long) const
                0x020491ac                Blip_Buffer::Blip_Buffer()
                0x02049cc4                Blip_Buffer::set_sample_rate(long, int)
                0x02049350                Blip_Buffer::count_clocks(long) const
 .text          0x0204a5a0      0x848 ../build/libgme/Classic_Emu.o
                0x0204a894                Classic_Emu::set_sample_rate(long)
                0x0204a6d4                Classic_Emu::~Classic_Emu()
                0x0204ad6c                Classic_Emu::set_equalizer(Music_Emu::equalizer_t const&)
                0x0204aa84                Classic_Emu::run_clocks(long, bool*)
                0x0204a5a0                Classic_Emu::Classic_Emu()
                0x0204aa0c                Classic_Emu::start_track(int)
                0x0204abb8                Classic_Emu::setup_buffer(long)
                0x0204a5f8                Classic_Emu::~Classic_Emu()
                0x0204a5cc                Classic_Emu::Classic_Emu()
                0x0204a7b0                Classic_Emu::~Classic_Emu()
                0x0204ac70                Classic_Emu::mute_voices(int)
                0x0204aaec                Classic_Emu::play(long, short*)
                0x0204aab0                Classic_Emu::run(int, bool*)
 .text          0x0204ade8      0x7bc ../build/libgme/Dual_Resampler.o
                0x0204b0e0                Dual_Resampler::~Dual_Resampler()
                0x0204b3e4                Dual_Resampler::play(long, short*, Blip_Buffer&)
                0x0204b198                Dual_Resampler::~Dual_Resampler()
                0x0204b250                Dual_Resampler::play_frame_(Blip_Buffer&, short*)
                0x0204b4d0                Dual_Resampler::Dual_Resampler()
                0x0204b00c                Dual_Resampler::Dual_Resampler()
                0x0204ade8                Dual_Resampler::mix_samples(Blip_Buffer&, short*)
                0x0204af74                Dual_Resampler::resize(int)
                0x0204aeb4                Dual_Resampler::~Dual_Resampler()
 .text          0x0204b5a4     0x1b34 ../build/libgme/Effects_Buffer.o
                0x0204cfac                Effects_Buffer::~Effects_Buffer()
                0x0204b5a4                Effects_Buffer::config_t::config_t()
                0x0204cadc                Effects_Buffer::Effects_Buffer(bool)
                0x0204b704                Effects_Buffer::clock_rate(long)
                0x0204ba4c                Effects_Buffer::mix_mono_enhanced(short*, long)
                0x0204b7a4                Effects_Buffer::clear()
                0x0204c34c                Effects_Buffer::config(Effects_Buffer::config_t const&)
                0x0204c33c                Effects_Buffer::samples_avail() const
                0x0204c6cc                Effects_Buffer::set_sample_rate(long, int)
                0x0204bd48                Effects_Buffer::mix_enhanced(short*, long)
                0x0204b918                Effects_Buffer::mix_stereo(short*, long)
                0x0204b820                Effects_Buffer::mix_mono(short*, long)
                0x0204c84c                Effects_Buffer::Effects_Buffer(bool)
                0x0204b654                Effects_Buffer::config_t::config_t()
                0x0204b758                Effects_Buffer::bass_freq(int)
                0x0204cd6c                Effects_Buffer::~Effects_Buffer()
                0x0204ce8c                Effects_Buffer::~Effects_Buffer()
                0x0204c7b0                Effects_Buffer::end_frame(long, bool)
                0x0204c180                Effects_Buffer::read_samples(short*, long)
 .text          0x0204d0d8      0x790 ../build/libgme/Fir_Resampler.o
                0x0204d21c                Fir_Resampler_::Fir_Resampler_(int, short*)
                0x0204d2d4                Fir_Resampler_::~Fir_Resampler_()
                0x0204d4ac                Fir_Resampler_::time_ratio(double, double, double)
                0x0204d0d8                Fir_Resampler_::avail_(long) const
                0x0204d2e8                Fir_Resampler_::clear()
                0x0204d354                Fir_Resampler_::skip_input(long)
                0x0204d404                Fir_Resampler_::buffer_size(int)
                0x0204d150                Fir_Resampler_::input_needed(long) const
                0x0204d278                Fir_Resampler_::Fir_Resampler_(int, short*)
                0x0204d208                Fir_Resampler_::~Fir_Resampler_()
 .text          0x0204d868      0xd08 ../build/libgme/Gb_Apu.o
                0x0204d908                Gb_Apu::run_until(long)
                0x0204d868                Gb_Apu::~Gb_Apu()
                0x0204d86c                Gb_Apu::~Gb_Apu()
                0x0204e330                Gb_Apu::Gb_Apu()
                0x0204df48                Gb_Apu::write_register(long, unsigned int, int)
                0x0204dbb4                Gb_Apu::read_register(long, unsigned int)
                0x0204dd1c                Gb_Apu::output(Blip_Buffer*, Blip_Buffer*, Blip_Buffer*)
                0x0204db0c                Gb_Apu::end_frame(long)
                0x0204dcb0                Gb_Apu::update_volume()
                0x0204d870                Gb_Apu::osc_output(int, Blip_Buffer*, Blip_Buffer*, Blip_Buffer*)
                0x0204e270                Gb_Apu::reset()
                0x0204e450                Gb_Apu::Gb_Apu()
                0x0204dc80                Gb_Apu::treble_eq(blip_eq_t const&)
 .text          0x0204e570     0x1dec ../build/libgme/Gb_Cpu.o
                0x0204e6ec                Gb_Cpu::write(unsigned int, int)
                0x0205024c                Gb_Cpu::Gb_Cpu(Gbs_Emu*)
                0x020502d4                Gb_Cpu::Gb_Cpu(Gbs_Emu*)
                0x0204e724                Gb_Cpu::run(long)
                0x0204e6c8                Gb_Cpu::read(unsigned int)
                0x0204e570                Gb_Cpu::map_code(unsigned int, unsigned long, void const*)
                0x020501d0                Gb_Cpu::reset(void const*, int (*)(Gbs_Emu*, unsigned int), void (*)(Gbs_Emu*, unsigned int, int))
                0x0204e710                Gb_Cpu::get_code(unsigned int)
                0x0204e61c                Gb_Cpu::map_memory(unsigned int, unsigned long, int (*)(Gbs_Emu*, unsigned int), void (*)(Gbs_Emu*, unsigned int, int))
 .text          0x0205035c     0x105c ../build/libgme/Gb_Oscs.o
                0x02050820                Gb_Square::run(long, long, int)
                0x02050380                Gb_Osc::clock_length()
                0x02050cdc                Gb_Noise::run(long, long, int)
                0x020504a0                Gb_Square::clock_sweep()
                0x020503f8                Gb_Env::write_register(int, int)
                0x020503a4                Gb_Env::clock_envelope()
                0x0205035c                Gb_Osc::reset()
                0x02051064                Gb_Wave::run(long, long, int)
                0x02050540                Gb_Square::reset()
                0x02050574                Gb_Apu::write_osc(int, int, int)
 .text          0x020513b8     0x1110 ../build/libgme/Gbs_Emu.o
                0x0205146c                Gbs_Emu::voice_names() const
                0x020516f8                Gbs_Emu::Gbs_Emu(double)
                0x020513cc                Gbs_Emu::write_ram(Gbs_Emu*, unsigned int, int)
                0x0205165c                Gbs_Emu::write_io(Gbs_Emu*, unsigned int, int)
                0x02051960                Gbs_Emu::Gbs_Emu(double)
                0x0205211c                Gbs_Emu::start_track(int)
                0x02051ca0                Gbs_Emu::~Gbs_Emu()
                0x02051518                Gbs_Emu::~Gbs_Emu()
                0x020513e8                Gbs_Emu::write_unmapped(Gbs_Emu*, unsigned int, int)
                0x02051e14                Gbs_Emu::load(Gbs_Emu::header_t const&, Data_Reader&)
                0x02051434                Gbs_Emu::set_voice(int, Blip_Buffer*, Blip_Buffer*, Blip_Buffer*)
                0x02052044                Gbs_Emu::load(Data_Reader&)
                0x020515f8                Gbs_Emu::read_io(Gbs_Emu*, unsigned int)
                0x02051400                Gbs_Emu::set_timer(int, int)
                0x02051458                Gbs_Emu::update_eq(blip_eq_t const&)
                0x020513e0                Gbs_Emu::read_unmapped(Gbs_Emu*, unsigned int)
                0x020520a4                Gbs_Emu::write_rom(Gbs_Emu*, unsigned int, int)
                0x0205230c                Gbs_Emu::run_clocks(long, bool*)
                0x02051bc8                Gbs_Emu::~Gbs_Emu()
                0x02051d78                Gbs_Emu::read_rom(Gbs_Emu*, unsigned int)
                0x020514e8                Gbs_Emu::unload()
                0x02051478                Gbs_Emu::cpu_jsr(unsigned int)
                0x02051db4                Gbs_Emu::set_bank(int)
                0x020513b8                Gbs_Emu::read_ram(Gbs_Emu*, unsigned int)
                0x020513ec                Gbs_Emu::read_bank(Gbs_Emu*, unsigned int)
 .text          0x020524c8      0xe98 ../build/libgme/Multi_Buffer.o
                0x02052d50                Silent_Buffer::Silent_Buffer()
                0x020524c8                Multi_Buffer::Multi_Buffer(int)
                0x020527c4                Stereo_Buffer::read_samples(short*, long)
                0x02052574                Stereo_Buffer::clear()
                0x02052d1c                Silent_Buffer::Silent_Buffer()
                0x02052c64                Mono_Buffer::~Mono_Buffer()
                0x02052a40                Mono_Buffer::Mono_Buffer()
                0x02053084                Stereo_Buffer::~Stereo_Buffer()
                0x02052944                Stereo_Buffer::clock_rate(long)
                0x02052bb0                Mono_Buffer::~Mono_Buffer()
                0x02052518                Mono_Buffer::channel(int)
                0x020525b0                Stereo_Buffer::end_frame(long, bool)
                0x0205252c                Mono_Buffer::end_frame(long, bool)
                0x02053264                Stereo_Buffer::~Stereo_Buffer()
                0x02052684                Stereo_Buffer::mix_stereo(short*, long)
                0x02052d84                Stereo_Buffer::Stereo_Buffer()
                0x02052510                Multi_Buffer::set_channel_count(int)
                0x02052914                Mono_Buffer::set_sample_rate(long, int)
                0x02052540                Stereo_Buffer::bass_freq(int)
                0x02053174                Stereo_Buffer::~Stereo_Buffer()
                0x02052afc                Mono_Buffer::~Mono_Buffer()
                0x02052f04                Stereo_Buffer::Stereo_Buffer()
                0x020528b8                Stereo_Buffer::set_sample_rate(long, int)
                0x020524ec                Multi_Buffer::Multi_Buffer(int)
                0x02052984                Mono_Buffer::Mono_Buffer()
                0x02052600                Stereo_Buffer::mix_mono(short*, long)
 .text          0x02053360      0x2a8 ../build/libgme/Music_Emu.o
                0x020533ac                Music_Emu::Music_Emu()
                0x02053418                Music_Emu::~Music_Emu()
                0x02053434                Music_Emu::load_file(char const*)
                0x02053408                Music_Emu::~Music_Emu()
                0x020535fc                Music_Emu::voice_names() const
                0x02053528                Music_Emu::skip(long)
                0x020533f8                Music_Emu::~Music_Emu()
                0x02053360                Music_Emu::Music_Emu()
 .text          0x02053608     0x11b8 ../build/libgme/Nes_Apu.o
                0x02054500                Nes_Apu::Nes_Apu()
                0x020540b4                Nes_Apu::write_register(long, unsigned int, int)
                0x02053608                Nes_Apu::output(Blip_Buffer*)
                0x020539d4                Nes_Apu::volume(double)
                0x02053660                Nes_Apu::irq_changed()
                0x0205365c                Nes_Apu::~Nes_Apu()
                0x02053ac0                Nes_Apu::treble_eq(blip_eq_t const&)
                0x02054440                Nes_Apu::read_status(long)
                0x02054660                Nes_Apu::Nes_Apu()
                0x0205373c                Nes_Apu::run_until_(long)
                0x020536b4                Nes_Apu::run_until(long)
                0x02054314                Nes_Apu::reset(bool, int)
                0x02053920                Nes_Apu::enable_nonlinear(double)
                0x02053b0c                Nes_Apu::end_frame(long)
                0x02053658                Nes_Apu::~Nes_Apu()
 .text          0x020547c0     0x2090 ../build/libgme/Nes_Cpu.o
                0x02056704                Nes_Cpu::reset(void const*, int (*)(Nes_Emu*, unsigned int), void (*)(Nes_Emu*, unsigned int, int))
                0x02054a74                Nes_Cpu::read(unsigned int)
                0x020567e4                Nes_Cpu::Nes_Cpu()
                0x020548a0                Nes_Cpu::set_writer(unsigned int, unsigned long, void (*)(Nes_Emu*, unsigned int, int))
                0x02056778                Nes_Cpu::Nes_Cpu()
                0x02054a98                Nes_Cpu::write(unsigned int, int)
                0x02054abc                Nes_Cpu::run(long)
                0x02054980                Nes_Cpu::map_code(unsigned int, unsigned long, void const*)
                0x020547c0                Nes_Cpu::set_reader(unsigned int, unsigned long, int (*)(Nes_Emu*, unsigned int))
 .text          0x02056850      0x5d4 ../build/libgme/Nes_Fme7_Apu.o
                0x02056850                Nes_Fme7_Apu::reset()
                0x0205689c                Nes_Fme7_Apu::run_until(long)
 .text          0x02056e24      0x668 ../build/libgme/Nes_Namco_Apu.o
                0x02056e24                Nes_Namco_Apu::output(Blip_Buffer*)
                0x02056e84                Nes_Namco_Apu::reset()
                0x020572c4                Nes_Namco_Apu::Nes_Namco_Apu()
                0x02056ee8                Nes_Namco_Apu::run_until(long)
                0x02056ee0                Nes_Namco_Apu::~Nes_Namco_Apu()
                0x020573a8                Nes_Namco_Apu::Nes_Namco_Apu()
                0x0205726c                Nes_Namco_Apu::end_frame(long)
                0x02056ee4                Nes_Namco_Apu::~Nes_Namco_Apu()
 .text          0x0205748c     0x1768 ../build/libgme/Nes_Oscs.o
                0x02057670                Nes_Triangle::clock_linear_counter()
                0x02057868                Nes_Square::clock_sweep(int)
                0x0205790c                Nes_Dmc::write_register(int, int)
                0x02057774                Nes_Dmc::fill_buffer()
                0x0205748c                Nes_Dmc::count_reads(long, long*) const
                0x020576c0                Nes_Dmc::reset()
                0x0205764c                Nes_Envelope::volume() const
                0x02058804                Nes_Noise::run(long, long)
                0x020575cc                Nes_Osc::clock_length(int)
                0x020575ec                Nes_Envelope::clock_envelope()
                0x02058100                Nes_Triangle::run(long, long)
                0x02057708                Nes_Dmc::recalc_irq()
                0x020579f8                Nes_Dmc::start()
                0x0205844c                Nes_Dmc::run(long, long)
                0x02057a88                Nes_Square::run(long, long)
 .text          0x02058bf4      0x850 ../build/libgme/Nes_Vrc6_Apu.o
                0x0205930c                Nes_Vrc6_Apu::write_osc(long, int, int, int)
                0x02058ca4                Nes_Vrc6_Apu::save_snapshot(vrc6_snapshot_t*) const
                0x02058fe0                Nes_Vrc6_Apu::run_until(long)
                0x02058c9c                Nes_Vrc6_Apu::~Nes_Vrc6_Apu()
                0x02058bf4                Nes_Vrc6_Apu::output(Blip_Buffer*)
                0x02059214                Nes_Vrc6_Apu::Nes_Vrc6_Apu()
                0x02058e38                Nes_Vrc6_Apu::run_square(Nes_Vrc6_Apu::Vrc6_Osc&, long)
                0x020593c8                Nes_Vrc6_Apu::end_frame(long)
                0x02058d10                Nes_Vrc6_Apu::run_saw(long)
                0x02059044                Nes_Vrc6_Apu::load_snapshot(vrc6_snapshot_t const&)
                0x0205911c                Nes_Vrc6_Apu::Nes_Vrc6_Apu()
                0x02058c44                Nes_Vrc6_Apu::reset()
                0x02058ca0                Nes_Vrc6_Apu::~Nes_Vrc6_Apu()
 .text          0x02059444     0x1a94 ../build/libgme/Nsf_Emu.o
                0x020594d4                Nes_Emu::read_unmapped(Nes_Emu*, unsigned int)
                0x0205a2bc                Nes_Emu::start_track(int)
                0x0205979c                Nes_Emu::write_vrc6(Nes_Emu*, unsigned int, int)
                0x02059548                Nes_Emu::unload()
                0x02059848                Nes_Emu::run_clocks(long, bool*)
                0x020594e0                Nes_Emu::write_unmapped(Nes_Emu*, unsigned int, int)
                0x020594a8                Nes_Emu::write_sram(Nes_Emu*, unsigned int, int)
                0x02059748                Nes_Emu::write_namco(Nes_Emu*, unsigned int, int)
                0x02059b50                Nes_Emu::update_eq(blip_eq_t const&)
                0x020597ec                Nes_Emu::write_fme7(Nes_Emu*, unsigned int, int)
                0x02059460                Nes_Emu::pcm_read(void*, unsigned int)
                0x020594e4                Nes_Emu::voice_names() const
                0x0205ae78                Nes_Emu::load(Data_Reader&)
                0x0205ab1c                Nes_Emu::load(Nes_Emu::header_t const&, Data_Reader&)
                0x020596d0                Nes_Emu::read_snd(Nes_Emu*, unsigned int)
                0x02059444                Nes_Emu::read_code(Nes_Emu*, unsigned int)
                0x02059bc0                Nes_Emu::Nes_Emu(double)
                0x02059710                Nes_Emu::write_snd(Nes_Emu*, unsigned int, int)
                0x0205a438                Nes_Emu::call_play()
                0x02059d44                Nes_Emu::Nes_Emu(double)
                0x0205a0e8                Nes_Emu::write_exram(Nes_Emu*, unsigned int, int)
                0x0205a484                Nes_Emu::init_sound()
                0x02059b18                Nes_Emu::read_namco(Nes_Emu*, unsigned int)
                0x02059ec8                Nes_Emu::~Nes_Emu()
                0x0205a168                Nes_Emu::set_voice(int, Blip_Buffer*, Blip_Buffer*, Blip_Buffer*)
                0x0205948c                Nes_Emu::read_sram(Nes_Emu*, unsigned int)
                0x020594c4                Nes_Emu::write_namco_addr(Nes_Emu*, unsigned int, int)
                0x02059474                Nes_Emu::read_low_mem(Nes_Emu*, unsigned int)
                0x020595b8                Nes_Emu::~Nes_Emu()
                0x02059fd8                Nes_Emu::~Nes_Emu()
                0x02059ad0                Nes_Emu::cpu_jsr(unsigned int, int)
                0x02059480                Nes_Emu::write_low_mem(Nes_Emu*, unsigned int, int)
 .text          0x0205aed8      0xcf4 ../build/libgme/abstract_file.o
                0x0205b064                Mem_File_Reader::size() const
                0x0205aed8                Data_Writer::write(void const*, long)
                0x0205ba34                Std_File_Reader::~Std_File_Reader()
                0x0205b450                Subset_Reader::Subset_Reader(Data_Reader*, long)
                0x0205baf8                Std_File_Reader::~Std_File_Reader()
                0x0205b06c                Mem_File_Reader::read_avail(void*, long)
                0x0205b1e0                Std_File_Reader::close()
                0x0205b124                Std_File_Reader::size() const
                0x0205b54c                Std_File_Writer::~Std_File_Writer()
                0x0205af38                Data_Reader::skip(long)
                0x0205b7d4                Mem_Writer::Mem_Writer(void*, long, int)
                0x0205b948                Std_File_Reader::Std_File_Reader()
                0x0205b888                Mem_Writer::~Mem_Writer()
                0x0205b024                Subset_Reader::read_avail(void*, long)
                0x0205b824                Mem_Writer::Mem_Writer()
                0x0205b184                Std_File_Reader::read_avail(void*, long)
                0x0205b0ec                Std_File_Reader::open(char const*)
                0x0205aee4                Data_Reader::read(void*, long)
                0x0205b910                Mem_File_Reader::Mem_File_Reader(void const*, long)
                0x0205b374                Null_Writer::write(void const*, long)
                0x0205b800                Mem_Writer::Mem_Writer()
                0x0205b37c                Subset_Reader::Subset_Reader(Data_Reader*, long)
                0x0205b208                Std_File_Writer::close()
                0x0205b970                Std_File_Reader::~Std_File_Reader()
                0x0205b268                Std_File_Writer::write(void const*, long)
                0x0205b29c                Mem_Writer::write(void const*, long)
                0x0205b1a0                Std_File_Reader::tell() const
                0x0205b01c                Subset_Reader::remain() const
                0x0205aee0                Data_Writer::satisfy_lame_linker_()
                0x0205b92c                Mem_File_Reader::Mem_File_Reader(void const*, long)
                0x0205b95c                Std_File_Reader::Std_File_Reader()
                0x0205b230                Std_File_Writer::open(char const*)
                0x0205b0c4                Mem_File_Reader::tell() const
                0x0205b7a8                Mem_Writer::Mem_Writer(void*, long, int)
                0x0205b8c8                Mem_Writer::~Mem_Writer()
                0x0205b848                Mem_Writer::~Mem_Writer()
                0x0205af7c                File_Reader::remain() const
                0x0205b1b4                Std_File_Reader::seek(long)
                0x0205afb8                File_Reader::skip(long)
                0x0205b0cc                Mem_File_Reader::seek(long)
                0x0205b524                Std_File_Writer::Std_File_Writer()
                0x0205b538                Std_File_Writer::Std_File_Writer()
                0x0205b610                Std_File_Writer::~Std_File_Writer()
                0x0205b6d4                Std_File_Writer::~Std_File_Writer()
 .text          0x0205bbcc       0xc0 c:/devkitpro/libnds/lib\libnds9.a(keys.o)
                0x0205bbcc                keysInit
                0x0205bc50                keysHeld
                0x0205bc70                keysUp
                0x0205bc5c                keysDown
                0x0205bbe0                scanKeys
 .text          0x0205bc8c      0x108 c:/devkitpro/libnds/lib\libnds9.a(video.o)
                0x0205bd44                vramSetBankF
                0x0205bd6c                vramSetBankH
                0x0205bd1c                vramSetBankD
                0x0205bd30                vramSetBankE
                0x0205bd58                vramSetBankG
                0x0205bcd4                vramRestorMainBanks
                0x0205bcf4                vramSetBankB
                0x0205bd08                vramSetBankC
                0x0205bd80                vramSetBankI
                0x0205bc8c                vramSetMainBanks
                0x0205bce0                vramSetBankA
 .text          0x0205bd94      0x304 c:/devkitpro/libnds/lib\libnds9.a(card.o)
                0x0205be00                cardStartTransfer
                0x0205beac                cardReadHeader
                0x0205bee8                cardReadEeprom
                0x0205bec4                cardReadID
                0x0205be7c                cardRead00
                0x0205bdbc                cardPolledTransfer
                0x0205bf88                cardWriteEeprom
                0x0205be4c                cardWriteAndRead
                0x0205bd94                cardWriteCommand
 .text          0x0205c098      0x1e4 c:/devkitpro/libnds/lib\libnds9.a(gbfs.o)
                0x0205c190                skip_gbfs_file
                0x0205c098                gbfs_search_range
                0x0205c208                gbfs_get_nth_obj
                0x0205c248                gbfs_copy_obj
                0x0205c1a4                gbfs_get_obj
                0x0205c0d4                find_first_gbfs_file
                0x0205c274                gbfs_count_objs
 .text          0x0205c27c      0x164 c:/devkitpro/libnds/lib\libnds9.a(interrupts.o)
                0x0205c3b8                irqEnable
                0x0205c280                irqSet
                0x0205c3d0                irqDisable
                0x0205c2f4                irqInit
                0x0205c27c                irqDummy
                0x0205c388                irqInitHandler
                0x0205c320                irqClear
 .text          0x0205c3e0       0x70 c:/devkitpro/libnds/lib\libnds9.a(cache.o)
                0x0205c3e0                DC_FlushAll
                0x0205c40c                DC_FlushRange
                0x0205c434                DC_InvalidateRange
                0x0205c428                DC_InvalidateAll
 .text          0x0205c450       0x80 c:/devkitpro/libnds/lib\libnds9.a(biosCalls.o)
                0x0205c464                swiSleep
                0x0205c49e                swiDecompressLZSSVram
                0x0205c4ba                swiGetPitchTable
                0x0205c486                swiFastCopy
                0x0205c48a                swiSqrt
                0x0205c450                swiSoftReset
                0x0205c48e                swiCRC16
                0x0205c4a2                swiDecompressHuffman
                0x0205c4c6                swiSetHaltCR
                0x0205c4b6                swiGetSineTable
                0x0205c4be                swiGetVolumeTable
                0x0205c470                swiRemainder
                0x0205c496                swiUnpackBits
                0x0205c460                swiHalt
                0x0205c49a                swiDecompressLZSSWram
                0x0205c4b2                swiDecodeDelta16
                0x0205c454                swiDelay
                0x0205c476                swiDivMod
                0x0205c4aa                swiDecompressRLEVram
                0x0205c4a6                swiDecompressRLEWram
                0x0205c4ae                swiDecodeDelta8
                0x0205c46c                swiDivide
                0x0205c45c                swiWaitForVBlank
                0x0205c458                swiIntrWait
                0x0205c492                swiIsDebugger
                0x0205c460                swiWaitForIRQ
                0x0205c482                swiCopy
                0x0205c4c2                swiUnknown
 .text          0x0205c4d0        0xc c:/devkitpro/libnds/lib\libnds9.a(division.o)
                0x0205c4d0                __divsi3
                0x0205c4d4                __modsi3
 .text          0x0205c4dc       0x14 c:/devkitpro/devkitarm/bin/../lib/gcc/arm-elf/4.0.2/../../../../arm-elf/lib/interwork\libstdc++.a(del_op.o)
                0x0205c4dc                operator delete(void*)
 .text          0x0205c4f0       0x10 c:/devkitpro/devkitarm/bin/../lib/gcc/arm-elf/4.0.2/../../../../arm-elf/lib/interwork\libstdc++.a(del_opv.o)
                0x0205c4f0                operator delete[](void*)
 .text          0x0205c500      0xb68 c:/devkitpro/devkitarm/bin/../lib/gcc/arm-elf/4.0.2/../../../../arm-elf/lib/interwork\libstdc++.a(eh_personality.o)
                0x0205c998                __cxa_call_unexpected
                0x0205cb18                __gxx_personality_sj0
 .text          0x0205d068      0x118 c:/devkitpro/devkitarm/bin/../lib/gcc/arm-elf/4.0.2/../../../../arm-elf/lib/interwork\libstdc++.a(eh_terminate.o)
                0x0205d13c                std::unexpected()
                0x0205d168                std::set_unexpected(void (*)())
                0x0205d150                std::set_terminate(void (*)())
                0x0205d118                std::terminate()
                0x0205d12c                __cxxabiv1::__unexpected(void (*)())
                0x0205d068                __cxxabiv1::__terminate(void (*)())
 .text          0x0205d180      0x12c c:/devkitpro/devkitarm/bin/../lib/gcc/arm-elf/4.0.2/../../../../arm-elf/lib/interwork\libstdc++.a(eh_throw.o)
                0x0205d230                __cxa_rethrow
                0x0205d1c4                __cxa_throw
 .text          0x0205d2ac      0x114 c:/devkitpro/devkitarm/bin/../lib/gcc/arm-elf/4.0.2/../../../../arm-elf/lib/interwork\libstdc++.a(new_op.o)
                0x0205d2ac                operator new(unsigned long)
 .text          0x0205d3c0       0xa0 c:/devkitpro/devkitarm/bin/../lib/gcc/arm-elf/4.0.2/../../../../arm-elf/lib/interwork\libstdc++.a(new_opv.o)
                0x0205d3c0                operator new[](unsigned long)
 .text          0x0205d460       0x1c c:/devkitpro/devkitarm/bin/../lib/gcc/arm-elf/4.0.2/../../../../arm-elf/lib/interwork\libstdc++.a(pure.o)
                0x0205d460                __cxa_pure_virtual
 .text          0x0205d47c      0xe60 c:/devkitpro/devkitarm/bin/../lib/gcc/arm-elf/4.0.2/../../../../arm-elf/lib/interwork\libstdc++.a(tinfo.o)
                0x0205d590                std::type_info::__is_function_p() const
                0x0205d6ec                __cxxabiv1::__si_class_type_info::__do_find_public_src(long, void const*, __cxxabiv1::__class_type_info const*, void const*) const
                0x0205d5d8                __cxxabiv1::__si_class_type_info::~__si_class_type_info()
                0x0205d8f0                __cxxabiv1::__vmi_class_type_info::__do_upcast(__cxxabiv1::__class_type_info const*, void const*, __cxxabiv1::__class_type_info::__upcast_result&) const
                0x0205d560                std::bad_typeid::~bad_typeid()
                0x0205d500                std::bad_cast::~bad_cast()
                0x0205d5a0                __cxxabiv1::__class_type_info::~__class_type_info()
                0x0205d630                __cxxabiv1::__vmi_class_type_info::~__vmi_class_type_info()
                0x0205d694                __cxxabiv1::__class_type_info::__do_catch(std::type_info const*, void**, unsigned int) const
                0x0205d4e4                std::bad_cast::~bad_cast()
                0x0205d7a8                __cxxabiv1::__class_type_info::__do_upcast(__cxxabiv1::__class_type_info const*, void const*, __cxxabiv1::__class_type_info::__upcast_result&) const
                0x0205d640                __cxxabiv1::__vmi_class_type_info::~__vmi_class_type_info()
                0x0205d49c                std::type_info::~type_info()
                0x0205d4ac                std::type_info::~type_info()
                0x0205d598                std::type_info::__do_upcast(__cxxabiv1::__class_type_info const*, void**) const
                0x0205d620                __cxxabiv1::__vmi_class_type_info::~__vmi_class_type_info()
                0x0205dc88                __cxxabiv1::__class_type_info::__do_upcast(__cxxabiv1::__class_type_info const*, void**) const
                0x0205d47c                std::type_info::~type_info()
                0x0205d7dc                __cxxabiv1::__si_class_type_info::__do_upcast(__cxxabiv1::__class_type_info const*, void const*, __cxxabiv1::__class_type_info::__upcast_result&) const
                0x0205d5e8                __cxxabiv1::__si_class_type_info::~__si_class_type_info()
                0x0205d588                std::type_info::__is_pointer_p() const
                0x0205d668                __cxxabiv1::__class_type_info::__do_find_public_src(long, void const*, __cxxabiv1::__class_type_info const*, void const*) const
                0x0205d4c8                std::bad_cast::~bad_cast()
                0x0205d5f8                __cxxabiv1::__si_class_type_info::~__si_class_type_info()
                0x0205d48c                __cxxabiv1::__class_type_info::~__class_type_info()
                0x0205ddfc                __cxxabiv1::__vmi_class_type_info::__do_dyncast(long, __cxxabiv1::__class_type_info::__sub_kind, __cxxabiv1::__class_type_info const*, void const*, __cxxabiv1::__class_type_info const*, void const*, __cxxabiv1::__class_type_info::__dyncast_result&) const
                0x0205d744                __cxxabiv1::__class_type_info::__do_dyncast(long, __cxxabiv1::__class_type_info::__sub_kind, __cxxabiv1::__class_type_info const*, void const*, __cxxabiv1::__class_type_info const*, void const*, __cxxabiv1::__class_type_info::__dyncast_result&) const
                0x0205d828                __cxxabiv1::__si_class_type_info::__do_dyncast(long, __cxxabiv1::__class_type_info::__sub_kind, __cxxabiv1::__class_type_info const*, void const*, __cxxabiv1::__class_type_info const*, void const*, __cxxabiv1::__class_type_info::__dyncast_result&) const
                0x0205dcec                __cxxabiv1::__vmi_class_type_info::__do_find_public_src(long, void const*, __cxxabiv1::__class_type_info const*, void const*) const
                0x0205d544                std::bad_typeid::~bad_typeid()
                0x0205d528                std::bad_typeid::~bad_typeid()
                0x0205db50                __dynamic_cast
                0x0205d67c                std::type_info::__do_catch(std::type_info const*, void**, unsigned int) const
                0x0205d5b0                __cxxabiv1::__class_type_info::~__class_type_info()
 .text          0x0205e2dc      0x268 c:/devkitpro/devkitarm/bin/../lib/gcc/arm-elf/4.0.2/../../../../arm-elf/lib/interwork\libstdc++.a(vterminate.o)
                0x0205e2dc                __gnu_cxx::__verbose_terminate_handler()
 .text          0x0205e544     0x48dc c:/devkitpro/devkitarm/bin/../lib/gcc/arm-elf/4.0.2/../../../../arm-elf/lib/interwork\libstdc++.a(cp-demangle.o)
                0x02062d14                __cxa_demangle
 .text          0x02062e20      0x19c c:/devkitpro/devkitarm/bin/../lib/gcc/arm-elf/4.0.2/../../../../arm-elf/lib/interwork\libstdc++.a(eh_alloc.o)
                0x02062f5c                __cxa_free_exception
                0x02062e20                __cxa_allocate_exception
 .text          0x02062fbc      0x1ec c:/devkitpro/devkitarm/bin/../lib/gcc/arm-elf/4.0.2/../../../../arm-elf/lib/interwork\libstdc++.a(eh_catch.o)
                0x02063184                std::uncaught_exception()
                0x020631a0                __cxa_get_exception_ptr
                0x020630d8                __cxa_end_catch
                0x02062fbc                __cxa_begin_catch
 .text          0x020631a8       0x94 c:/devkitpro/devkitarm/bin/../lib/gcc/arm-elf/4.0.2/../../../../arm-elf/lib/interwork\libstdc++.a(eh_exception.o)
                0x020631a8                std::exception::~exception()
                0x0206322c                std::exception::what() const
                0x020631e4                std::bad_exception::~bad_exception()
                0x020631f4                std::bad_exception::~bad_exception()
                0x02063204                std::bad_exception::~bad_exception()
                0x020631b8                std::exception::~exception()
                0x020631c8                std::exception::~exception()
 .text          0x0206323c       0x18 c:/devkitpro/devkitarm/bin/../lib/gcc/arm-elf/4.0.2/../../../../arm-elf/lib/interwork\libstdc++.a(eh_globals.o)
                0x0206323c                __cxa_get_globals_fast
                0x02063248                __cxa_get_globals
 .text          0x02063254       0x24 c:/devkitpro/devkitarm/bin/../lib/gcc/arm-elf/4.0.2/../../../../arm-elf/lib/interwork\libstdc++.a(eh_type.o)
                0x02063254                __cxa_current_exception_type
 .text          0x02063278       0x78 c:/devkitpro/devkitarm/bin/../lib/gcc/arm-elf/4.0.2/../../../../arm-elf/lib/interwork\libstdc++.a(new_handler.o)
                0x02063290                std::bad_alloc::~bad_alloc()
                0x020632c8                std::bad_alloc::~bad_alloc()
                0x02063278                std::set_new_handler(void (*)())
                0x020632ac                std::bad_alloc::~bad_alloc()
 .text          0x020632f0      0x11c c:/devkitpro/devkitarm/bin/../lib/gcc/arm-elf/4.0.2/../../../../arm-elf/lib/interwork\libm.a(s_cos.o)
                0x020632f0                cos
 .text          0x0206340c       0x20 c:/devkitpro/devkitarm/bin/../lib/gcc/arm-elf/4.0.2/../../../../arm-elf/lib/interwork\libm.a(s_fabs.o)
                0x0206340c                fabs
 .text          0x0206342c      0x1c4 c:/devkitpro/devkitarm/bin/../lib/gcc/arm-elf/4.0.2/../../../../arm-elf/lib/interwork\libm.a(s_floor.o)
                0x0206342c                floor
 .text          0x020635f0        0x8 c:/devkitpro/devkitarm/bin/../lib/gcc/arm-elf/4.0.2/../../../../arm-elf/lib/interwork\libm.a(sf_fabs.o)
                0x020635f0                fabsf
 .text          0x020635f8      0x134 c:/devkitpro/devkitarm/bin/../lib/gcc/arm-elf/4.0.2/../../../../arm-elf/lib/interwork\libm.a(w_fmod.o)
                0x020635f8                fmod
 .text          0x0206372c      0x4fc c:/devkitpro/devkitarm/bin/../lib/gcc/arm-elf/4.0.2/../../../../arm-elf/lib/interwork\libm.a(w_pow.o)
                0x0206372c                pow
 .text          0x02063c28      0x3bc c:/devkitpro/devkitarm/bin/../lib/gcc/arm-elf/4.0.2/../../../../arm-elf/lib/interwork\libm.a(e_fmod.o)
                0x02063c28                __ieee754_fmod
 .text          0x02063fe4     0x1134 c:/devkitpro/devkitarm/bin/../lib/gcc/arm-elf/4.0.2/../../../../arm-elf/lib/interwork\libm.a(e_pow.o)
                0x02063fe4                __ieee754_pow
 .text          0x02065118      0x638 c:/devkitpro/devkitarm/bin/../lib/gcc/arm-elf/4.0.2/../../../../arm-elf/lib/interwork\libm.a(e_rem_pio2.o)
                0x02065118                __ieee754_rem_pio2
 .text          0x02065750      0x264 c:/devkitpro/devkitarm/bin/../lib/gcc/arm-elf/4.0.2/../../../../arm-elf/lib/interwork\libm.a(e_sqrt.o)
                0x02065750                __ieee754_sqrt
 .text          0x020659b4      0x300 c:/devkitpro/devkitarm/bin/../lib/gcc/arm-elf/4.0.2/../../../../arm-elf/lib/interwork\libm.a(k_cos.o)
                0x020659b4                __kernel_cos
 .text          0x02065cb4      0xc6c c:/devkitpro/devkitarm/bin/../lib/gcc/arm-elf/4.0.2/../../../../arm-elf/lib/interwork\libm.a(k_rem_pio2.o)
                0x02065cb4                __kernel_rem_pio2
 .text          0x02066920      0x240 c:/devkitpro/devkitarm/bin/../lib/gcc/arm-elf/4.0.2/../../../../arm-elf/lib/interwork\libm.a(k_sin.o)
                0x02066920                __kernel_sin
 .text          0x02066b60       0x18 c:/devkitpro/devkitarm/bin/../lib/gcc/arm-elf/4.0.2/../../../../arm-elf/lib/interwork\libm.a(s_finite.o)
                0x02066b60                finite
 .text          0x02066b78       0x30 c:/devkitpro/devkitarm/bin/../lib/gcc/arm-elf/4.0.2/../../../../arm-elf/lib/interwork\libm.a(s_isnan.o)
                0x02066b78                isnan
 .text          0x02066ba8        0x8 c:/devkitpro/devkitarm/bin/../lib/gcc/arm-elf/4.0.2/../../../../arm-elf/lib/interwork\libm.a(s_matherr.o)
                0x02066ba8                matherr
 .text          0x02066bb0      0x1cc c:/devkitpro/devkitarm/bin/../lib/gcc/arm-elf/4.0.2/../../../../arm-elf/lib/interwork\libm.a(s_rint.o)
                0x02066bb0                rint
 .text          0x02066d7c      0x1c8 c:/devkitpro/devkitarm/bin/../lib/gcc/arm-elf/4.0.2/../../../../arm-elf/lib/interwork\libm.a(s_scalbn.o)
                0x02066d7c                scalbn
 .text          0x02066f44       0x24 c:/devkitpro/devkitarm/bin/../lib/gcc/arm-elf/4.0.2/../../../../arm-elf/lib/interwork\libm.a(s_copysign.o)
                0x02066f44                copysign
 .text          0x02066f68      0x114 c:/devkitpro/devkitarm/bin/../lib/gcc/arm-elf/4.0.2/interwork\libgcc.a(_udivsi3.o)
                0x02066f68                __udivsi3
                0x02067064                __aeabi_uidivmod
 .text          0x0206707c       0xd0 c:/devkitpro/devkitarm/bin/../lib/gcc/arm-elf/4.0.2/interwork\libgcc.a(_umodsi3.o)
                0x0206707c                __umodsi3
 .text          0x0206714c        0x4 c:/devkitpro/devkitarm/bin/../lib/gcc/arm-elf/4.0.2/interwork\libgcc.a(_dvmd_tls.o)
                0x0206714c                __aeabi_ldiv0
                0x0206714c                __div0
                0x0206714c                __aeabi_idiv0
 .text          0x02067150       0x3c c:/devkitpro/devkitarm/bin/../lib/gcc/arm-elf/4.0.2/interwork\libgcc.a(_call_via_rX.o)
                0x02067158                _call_via_r2
                0x02067168                _call_via_r6
                0x02067164                _call_via_r5
                0x0206715c                _call_via_r3
                0x0206717c                _call_via_fp
                0x02067170                _call_via_r8
                0x0206716c                _call_via_r7
                0x02067150                _call_via_r0
                0x02067178                _call_via_sl
                0x02067184                _call_via_sp
                0x02067174                _call_via_r9
                0x02067160                _call_via_r4
                0x02067154                _call_via_r1
                0x02067180                _call_via_ip
                0x02067188                _call_via_lr
 .text          0x0206718c      0x430 c:/devkitpro/devkitarm/bin/../lib/gcc/arm-elf/4.0.2/interwork\libgcc.a(_addsubdf3.o)
                0x02067550                __floatdidf
                0x020674d0                __floatsidf
                0x020674a8                __aeabi_ui2d
                0x0206718c                __aeabi_drsub
                0x020674fc                __extendsfdf2
                0x02067198                __adddf3
                0x020674a8                __floatunsidf
                0x02067198                __aeabi_dadd
                0x0206753c                __aeabi_ul2d
                0x02067194                __aeabi_dsub
                0x0206753c                __floatundidf
                0x020674d0                __aeabi_i2d
                0x02067550                __aeabi_l2d
                0x020674fc                __aeabi_f2d
                0x02067194                __subdf3
 .text          0x020675bc      0x49c c:/devkitpro/devkitarm/bin/../lib/gcc/arm-elf/4.0.2/interwork\libgcc.a(_muldivdf3.o)
                0x0206784c                __aeabi_ddiv
                0x020675bc                __aeabi_dmul
                0x0206784c                __divdf3
                0x020675bc                __muldf3
 .text          0x02067a58      0x140 c:/devkitpro/devkitarm/bin/../lib/gcc/arm-elf/4.0.2/interwork\libgcc.a(_cmpdf2.o)
                0x02067b50                __aeabi_dcmple
                0x02067a68                __cmpdf2
                0x02067a68                __eqdf2
                0x02067a58                __gtdf2
                0x02067b08                __aeabi_cdcmple
                0x02067aec                __aeabi_cdrcmple
                0x02067a60                __ltdf2
                0x02067b38                __aeabi_dcmplt
                0x02067a60                __ledf2
                0x02067b80                __aeabi_dcmpgt
                0x02067b68                __aeabi_dcmpge
                0x02067a68                __nedf2
                0x02067b20                __aeabi_dcmpeq
                0x02067b08                __aeabi_cdcmpeq
                0x02067a58                __gedf2
 .text          0x02067b98       0x5c c:/devkitpro/devkitarm/bin/../lib/gcc/arm-elf/4.0.2/interwork\libgcc.a(_fixdfsi.o)
                0x02067b98                __fixdfsi
                0x02067b98                __aeabi_d2iz
 .text          0x02067bf4       0x54 c:/devkitpro/devkitarm/bin/../lib/gcc/arm-elf/4.0.2/interwork\libgcc.a(_fixunsdfsi.o)
                0x02067bf4                __fixunsdfsi
                0x02067bf4                __aeabi_d2uiz
 .text          0x02067c48       0xa0 c:/devkitpro/devkitarm/bin/../lib/gcc/arm-elf/4.0.2/interwork\libgcc.a(_truncdfsf2.o)
                0x02067c48                __aeabi_d2f
                0x02067c48                __truncdfsf2
 .text          0x02067ce8      0x2ac c:/devkitpro/devkitarm/bin/../lib/gcc/arm-elf/4.0.2/interwork\libgcc.a(_addsubsf3.o)
                0x02067cf4                __aeabi_fadd
                0x02067cf0                __subsf3
                0x02067eb8                __aeabi_i2f
                0x02067cf0                __aeabi_fsub
                0x02067ee8                __floatdisf
                0x02067eb8                __floatsisf
                0x02067ed8                __floatundisf
                0x02067eb0                __aeabi_ui2f
                0x02067ee8                __aeabi_l2f
                0x02067ed8                __aeabi_ul2f
                0x02067ce8                __aeabi_frsub
                0x02067eb0                __floatunsisf
                0x02067cf4                __addsf3
 .text          0x02067f94      0x2f8 c:/devkitpro/devkitarm/bin/../lib/gcc/arm-elf/4.0.2/interwork\libgcc.a(_muldivsf3.o)
                0x0206812c                __divsf3
                0x0206812c                __aeabi_fdiv
                0x02067f94                __mulsf3
                0x02067f94                __aeabi_fmul
 .text          0x0206828c      0x110 c:/devkitpro/devkitarm/bin/../lib/gcc/arm-elf/4.0.2/interwork\libgcc.a(_cmpsf2.o)
                0x02068384                __aeabi_fcmpgt
                0x02068294                __lesf2
                0x0206829c                __nesf2
                0x0206836c                __aeabi_fcmpge
                0x0206828c                __gtsf2
                0x02068354                __aeabi_fcmple
                0x0206829c                __eqsf2
                0x0206829c                __cmpsf2
                0x02068294                __ltsf2
                0x0206830c                __aeabi_cfcmple
                0x0206828c                __gesf2
                0x02068324                __aeabi_fcmpeq
                0x020682fc                __aeabi_cfrcmple
                0x0206833c                __aeabi_fcmplt
                0x0206830c                __aeabi_cfcmpeq
 .text          0x0206839c       0x5c c:/devkitpro/devkitarm/bin/../lib/gcc/arm-elf/4.0.2/interwork\libgcc.a(_fixsfsi.o)
                0x0206839c                __fixsfsi
                0x0206839c                __aeabi_f2iz
 .text          0x020683f8       0x54 c:/devkitpro/devkitarm/bin/../lib/gcc/arm-elf/4.0.2/interwork\libgcc.a(_fixunssfsi.o)
                0x020683f8                __aeabi_f2uiz
                0x020683f8                __fixunssfsi
 .text          0x0206844c      0x58c c:/devkitpro/devkitarm/bin/../lib/gcc/arm-elf/4.0.2/interwork\libgcc.a(_divdi3.o)
                0x0206844c                __divdi3
 .text          0x020689d8      0x530 c:/devkitpro/devkitarm/bin/../lib/gcc/arm-elf/4.0.2/interwork\libgcc.a(_udivdi3.o)
                0x020689d8                __udivdi3
 .text          0x02068f08      0x554 c:/devkitpro/devkitarm/bin/../lib/gcc/arm-elf/4.0.2/interwork\libgcc.a(unwind-sjlj.o)
                0x02068f40                _Unwind_SjLj_Unregister
                0x02068f70                _Unwind_GetIP
                0x02068f9c                _Unwind_GetRegionStart
                0x020693dc                _Unwind_Backtrace
                0x02069290                _Unwind_SjLj_ForcedUnwind
                0x02068f58                _Unwind_GetCFA
                0x02068f08                _Unwind_SjLj_Register
                0x020693b4                _Unwind_DeleteException
                0x020690e8                _Unwind_SjLj_RaiseException
                0x020692f0                _Unwind_SjLj_Resume
                0x02069354                _Unwind_SjLj_Resume_or_Rethrow
                0x02068f80                _Unwind_SetIP
                0x02068fb4                _Unwind_GetTextRelBase
                0x02068fa4                _Unwind_FindEnclosingFunction
                0x02068f90                _Unwind_GetLanguageSpecificData
                0x02068f60                _Unwind_SetGR
                0x02068f48                _Unwind_GetGR
                0x02068fac                _Unwind_GetDataRelBase
 .text          0x0206945c        0xc c:/devkitpro/devkitarm/bin/../lib/gcc/arm-elf/4.0.2/../../../../arm-elf/lib/interwork\libg.a(abs.o)
                0x0206945c                abs
 .text          0x02069468       0x34 c:/devkitpro/devkitarm/bin/../lib/gcc/arm-elf/4.0.2/../../../../arm-elf/lib/interwork\libg.a(assert.o)
                0x02069468                __assert
 .text          0x0206949c       0x14 c:/devkitpro/devkitarm/bin/../lib/gcc/arm-elf/4.0.2/../../../../arm-elf/lib/interwork\libg.a(atof.o)
                0x0206949c                atof
 .text          0x020694b0       0x30 c:/devkitpro/devkitarm/bin/../lib/gcc/arm-elf/4.0.2/../../../../arm-elf/lib/interwork\libg.a(atoi.o)
                0x020694c8                _atoi_r
                0x020694b0                atoi
 .text          0x020694e0       0x30 c:/devkitpro/devkitarm/bin/../lib/gcc/arm-elf/4.0.2/../../../../arm-elf/lib/interwork\libg.a(atol.o)
                0x020694f8                _atol_r
                0x020694e0                atol
 .text          0x02069510       0x30 c:/devkitpro/devkitarm/bin/../lib/gcc/arm-elf/4.0.2/../../../../arm-elf/lib/interwork\libg.a(atoll.o)
                0x02069528                _atoll_r
                0x02069510                atoll
 .text          0x02069540       0x7c c:/devkitpro/devkitarm/bin/../lib/gcc/arm-elf/4.0.2/../../../../arm-elf/lib/interwork\libg.a(bsearch.o)
                0x02069540                bsearch
 .text          0x020695bc       0x28 c:/devkitpro/devkitarm/bin/../lib/gcc/arm-elf/4.0.2/../../../../arm-elf/lib/interwork\libg.a(calloc.o)
                0x020695bc                calloc
 .text          0x020695e4       0x94 c:/devkitpro/devkitarm/bin/../lib/gcc/arm-elf/4.0.2/../../../../arm-elf/lib/interwork\libg.a(callocr.o)
                0x020695e4                _calloc_r
 .text          0x02069678       0x10 c:/devkitpro/devkitarm/bin/../lib/gcc/arm-elf/4.0.2/../../../../arm-elf/lib/interwork\libg.a(errno.o)
                0x02069678                __errno
 .text          0x02069688      0x128 c:/devkitpro/devkitarm/bin/../lib/gcc/arm-elf/4.0.2/../../../../arm-elf/lib/interwork\libg.a(fclose.o)
                0x02069688                _fclose_r
                0x0206979c                fclose
 .text          0x020697b0       0xf0 c:/devkitpro/devkitarm/bin/../lib/gcc/arm-elf/4.0.2/../../../../arm-elf/lib/interwork\libg.a(fflush.o)
                0x020697b0                fflush
 .text          0x020698a0      0x294 c:/devkitpro/devkitarm/bin/../lib/gcc/arm-elf/4.0.2/../../../../arm-elf/lib/interwork\libg.a(findfp.o)
                0x02069950                __sinit
                0x020698fc                __sfmoreglue
                0x02069acc                _cleanup
                0x02069ab4                _cleanup_r
                0x02069aec                __fp_lock_all
                0x0206994c                __sfp_lock_acquire
                0x020699c8                __sfp
                0x02069b10                __fp_unlock_all
                0x020699c4                __sfp_lock_release
 .text          0x02069b34       0x30 c:/devkitpro/devkitarm/bin/../lib/gcc/arm-elf/4.0.2/../../../../arm-elf/lib/interwork\libg.a(fiprintf.o)
                0x02069b34                fiprintf
 .text          0x02069b64       0xfc c:/devkitpro/devkitarm/bin/../lib/gcc/arm-elf/4.0.2/../../../../arm-elf/lib/interwork\libg.a(fopen.o)
                0x02069c44                fopen
                0x02069b64                _fopen_r
 .text          0x02069c60       0x78 c:/devkitpro/devkitarm/bin/../lib/gcc/arm-elf/4.0.2/../../../../arm-elf/lib/interwork\libg.a(fputc.o)
                0x02069c60                fputc
 .text          0x02069cd8       0x44 c:/devkitpro/devkitarm/bin/../lib/gcc/arm-elf/4.0.2/../../../../arm-elf/lib/interwork\libg.a(fputs.o)
                0x02069cd8                fputs
 .text          0x02069d1c      0x1c0 c:/devkitpro/devkitarm/bin/../lib/gcc/arm-elf/4.0.2/../../../../arm-elf/lib/interwork\libg.a(fread.o)
                0x02069d1c                fread
 .text          0x02069edc      0x39c c:/devkitpro/devkitarm/bin/../lib/gcc/arm-elf/4.0.2/../../../../arm-elf/lib/interwork\libg.a(freer.o)
                0x02069fdc                _free_r
                0x02069edc                _malloc_trim_r
 .text          0x0206a278      0x494 c:/devkitpro/devkitarm/bin/../lib/gcc/arm-elf/4.0.2/../../../../arm-elf/lib/interwork\libg.a(fseek.o)
                0x0206a6e0                fseek
                0x0206a278                _fseek_r
 .text          0x0206a70c       0x40 c:/devkitpro/devkitarm/bin/../lib/gcc/arm-elf/4.0.2/../../../../arm-elf/lib/interwork\libg.a(fstatr.o)
                0x0206a70c                _fstat_r
 .text          0x0206a74c       0xf0 c:/devkitpro/devkitarm/bin/../lib/gcc/arm-elf/4.0.2/../../../../arm-elf/lib/interwork\libg.a(ftell.o)
                0x0206a828                ftell
                0x0206a74c                _ftell_r
 .text          0x0206a83c      0x414 c:/devkitpro/devkitarm/bin/../lib/gcc/arm-elf/4.0.2/../../../../arm-elf/lib/interwork\libg.a(fvwrite.o)
                0x0206a83c                __sfvwrite
 .text          0x0206ac50      0x114 c:/devkitpro/devkitarm/bin/../lib/gcc/arm-elf/4.0.2/../../../../arm-elf/lib/interwork\libg.a(fwalk.o)
                0x0206ac50                _fwalk
                0x0206acd8                _fwalk_reent
 .text          0x0206ad64       0x68 c:/devkitpro/devkitarm/bin/../lib/gcc/arm-elf/4.0.2/../../../../arm-elf/lib/interwork\libg.a(fwrite.o)
                0x0206ad64                fwrite
 .text          0x0206adcc        0xc c:/devkitpro/devkitarm/bin/../lib/gcc/arm-elf/4.0.2/../../../../arm-elf/lib/interwork\libg.a(labs.o)
                0x0206adcc                labs
 .text          0x0206add8       0x2c c:/devkitpro/devkitarm/bin/../lib/gcc/arm-elf/4.0.2/../../../../arm-elf/lib/interwork\libg.a(llabs.o)
                0x0206add8                llabs
 .text          0x0206ae04      0x158 c:/devkitpro/devkitarm/bin/../lib/gcc/arm-elf/4.0.2/../../../../arm-elf/lib/interwork\libg.a(makebuf.o)
                0x0206ae04                __smakebuf
 .text          0x0206af5c       0x40 c:/devkitpro/devkitarm/bin/../lib/gcc/arm-elf/4.0.2/../../../../arm-elf/lib/interwork\libg.a(malloc.o)
                0x0206af5c                malloc
                0x0206af7c                free
 .text          0x0206af9c      0x774 c:/devkitpro/devkitarm/bin/../lib/gcc/arm-elf/4.0.2/../../../../arm-elf/lib/interwork\libg.a(mallocr.o)
                0x0206af9c                _malloc_r
 .text          0x0206b710      0x104 c:/devkitpro/devkitarm/bin/../lib/gcc/arm-elf/4.0.2/../../../../arm-elf/lib/interwork\libg.a(memchr.o)
                0x0206b710                memchr
 .text          0x0206b814       0xa0 c:/devkitpro/devkitarm/bin/../lib/gcc/arm-elf/4.0.2/../../../../arm-elf/lib/interwork\libg.a(memcmp.o)
                0x0206b814                memcmp
 .text          0x0206b8b4       0xb0 c:/devkitpro/devkitarm/bin/../lib/gcc/arm-elf/4.0.2/../../../../arm-elf/lib/interwork\libg.a(memcpy.o)
                0x0206b8b4                memcpy
 .text          0x0206b964      0x108 c:/devkitpro/devkitarm/bin/../lib/gcc/arm-elf/4.0.2/../../../../arm-elf/lib/interwork\libg.a(memmove.o)
                0x0206b964                memmove
 .text          0x0206ba6c       0xa0 c:/devkitpro/devkitarm/bin/../lib/gcc/arm-elf/4.0.2/../../../../arm-elf/lib/interwork\libg.a(memset.o)
                0x0206ba6c                memset
 .text          0x0206bb0c        0x8 c:/devkitpro/devkitarm/bin/../lib/gcc/arm-elf/4.0.2/../../../../arm-elf/lib/interwork\libg.a(mlock.o)
                0x0206bb10                __malloc_unlock
                0x0206bb0c                __malloc_lock
 .text          0x0206bb14       0x44 c:/devkitpro/devkitarm/bin/../lib/gcc/arm-elf/4.0.2/../../../../arm-elf/lib/interwork\libg.a(openr.o)
                0x0206bb14                _open_r
 .text          0x0206bb58       0x74 c:/devkitpro/devkitarm/bin/../lib/gcc/arm-elf/4.0.2/../../../../arm-elf/lib/interwork\libg.a(printf.o)
                0x0206bb8c                printf
                0x0206bb58                _printf_r
 .text          0x0206bbcc       0x74 c:/devkitpro/devkitarm/bin/../lib/gcc/arm-elf/4.0.2/../../../../arm-elf/lib/interwork\libg.a(rand.o)
                0x0206bbe8                rand
                0x0206bbcc                srand
 .text          0x0206bc40       0x28 c:/devkitpro/devkitarm/bin/../lib/gcc/arm-elf/4.0.2/../../../../arm-elf/lib/interwork\libg.a(realloc.o)
                0x0206bc40                realloc
 .text          0x0206bc68      0x50c c:/devkitpro/devkitarm/bin/../lib/gcc/arm-elf/4.0.2/../../../../arm-elf/lib/interwork\libg.a(reallocr.o)
                0x0206bc68                _realloc_r
 .text          0x0206c174      0x18c c:/devkitpro/devkitarm/bin/../lib/gcc/arm-elf/4.0.2/../../../../arm-elf/lib/interwork\libg.a(reent.o)
                0x0206c174                cleanup_glue
                0x0206c1a0                _reclaim_reent
                0x0206c284                _wrapup_reent
 .text          0x0206c300      0x1c4 c:/devkitpro/devkitarm/bin/../lib/gcc/arm-elf/4.0.2/../../../../arm-elf/lib/interwork\libg.a(refill.o)
                0x0206c330                __srefill
 .text          0x0206c4c4       0x40 c:/devkitpro/devkitarm/bin/../lib/gcc/arm-elf/4.0.2/../../../../arm-elf/lib/interwork\libg.a(sbrkr.o)
                0x0206c4c4                _sbrk_r
 .text          0x0206c504       0xec c:/devkitpro/devkitarm/bin/../lib/gcc/arm-elf/4.0.2/../../../../arm-elf/lib/interwork\libg.a(snprintf.o)
                0x0206c574                snprintf
                0x0206c504                _snprintf_r
 .text          0x0206c5f0       0xdc c:/devkitpro/devkitarm/bin/../lib/gcc/arm-elf/4.0.2/../../../../arm-elf/lib/interwork\libg.a(sprintf.o)
                0x0206c5f0                _sprintf_r
                0x0206c658                sprintf
 .text          0x0206c6cc      0x118 c:/devkitpro/devkitarm/bin/../lib/gcc/arm-elf/4.0.2/../../../../arm-elf/lib/interwork\libg.a(stdio.o)
                0x0206c778                __sseek
                0x0206c6cc                __sread
                0x0206c7c4                __sclose
                0x0206c714                __swrite
 .text          0x0206c7e4       0xac c:/devkitpro/devkitarm/bin/../lib/gcc/arm-elf/4.0.2/../../../../arm-elf/lib/interwork\libg.a(strcat.o)
                0x0206c7e4                strcat
 .text          0x0206c890      0x138 c:/devkitpro/devkitarm/bin/../lib/gcc/arm-elf/4.0.2/../../../../arm-elf/lib/interwork\libg.a(strchr.o)
                0x0206c890                strchr
 .text          0x0206c9c8       0xf8 c:/devkitpro/devkitarm/bin/../lib/gcc/arm-elf/4.0.2/../../../../arm-elf/lib/interwork\libg.a(strcmp.o)
                0x0206c9c8                strcmp
 .text          0x0206cac0       0x10 c:/devkitpro/devkitarm/bin/../lib/gcc/arm-elf/4.0.2/../../../../arm-elf/lib/interwork\libg.a(strcoll.o)
                0x0206cac0                strcoll
 .text          0x0206cad0       0xa4 c:/devkitpro/devkitarm/bin/../lib/gcc/arm-elf/4.0.2/../../../../arm-elf/lib/interwork\libg.a(strcpy.o)
                0x0206cad0                strcpy
 .text          0x0206cb74       0x70 c:/devkitpro/devkitarm/bin/../lib/gcc/arm-elf/4.0.2/../../../../arm-elf/lib/interwork\libg.a(strcspn.o)
                0x0206cb74                strcspn
 .text          0x0206cbe4       0x20 c:/devkitpro/devkitarm/bin/../lib/gcc/arm-elf/4.0.2/../../../../arm-elf/lib/interwork\libg.a(strdup.o)
                0x0206cbe4                strdup
 .text          0x0206cc04       0x40 c:/devkitpro/devkitarm/bin/../lib/gcc/arm-elf/4.0.2/../../../../arm-elf/lib/interwork\libg.a(strdup_r.o)
                0x0206cc04                _strdup_r
 .text          0x0206cc44       0xa4 c:/devkitpro/devkitarm/bin/../lib/gcc/arm-elf/4.0.2/../../../../arm-elf/lib/interwork\libg.a(strlen.o)
                0x0206cc44                strlen
 .text          0x0206cce8       0xdc c:/devkitpro/devkitarm/bin/../lib/gcc/arm-elf/4.0.2/../../../../arm-elf/lib/interwork\libg.a(strncat.o)
                0x0206cce8                strncat
 .text          0x0206cdc4      0x17c c:/devkitpro/devkitarm/bin/../lib/gcc/arm-elf/4.0.2/../../../../arm-elf/lib/interwork\libg.a(strncmp.o)
                0x0206cdc4                strncmp
 .text          0x0206cf40      0x154 c:/devkitpro/devkitarm/bin/../lib/gcc/arm-elf/4.0.2/../../../../arm-elf/lib/interwork\libg.a(strncpy.o)
                0x0206cf40                strncpy
 .text          0x0206d094       0x7c c:/devkitpro/devkitarm/bin/../lib/gcc/arm-elf/4.0.2/../../../../arm-elf/lib/interwork\libg.a(strpbrk.o)
                0x0206d094                strpbrk
 .text          0x0206d110       0x4c c:/devkitpro/devkitarm/bin/../lib/gcc/arm-elf/4.0.2/../../../../arm-elf/lib/interwork\libg.a(strrchr.o)
                0x0206d110                strrchr
 .text          0x0206d15c       0x1c c:/devkitpro/devkitarm/bin/../lib/gcc/arm-elf/4.0.2/../../../../arm-elf/lib/interwork\libg.a(strsep.o)
                0x0206d15c                strsep
 .text          0x0206d178       0x6c c:/devkitpro/devkitarm/bin/../lib/gcc/arm-elf/4.0.2/../../../../arm-elf/lib/interwork\libg.a(strspn.o)
                0x0206d178                strspn
 .text          0x0206d1e4       0x78 c:/devkitpro/devkitarm/bin/../lib/gcc/arm-elf/4.0.2/../../../../arm-elf/lib/interwork\libg.a(strstr.o)
                0x0206d1e4                strstr
 .text          0x0206d25c     0x10a8 c:/devkitpro/devkitarm/bin/../lib/gcc/arm-elf/4.0.2/../../../../arm-elf/lib/interwork\libg.a(strtod.o)
                0x0206d25c                _strtod_r
                0x0206e2bc                strtod
                0x0206e2d8                strtof
 .text          0x0206e304       0x24 c:/devkitpro/devkitarm/bin/../lib/gcc/arm-elf/4.0.2/../../../../arm-elf/lib/interwork\libg.a(strtok.o)
                0x0206e304                strtok
 .text          0x0206e328       0xd0 c:/devkitpro/devkitarm/bin/../lib/gcc/arm-elf/4.0.2/../../../../arm-elf/lib/interwork\libg.a(strtok_r.o)
                0x0206e3f0                strtok_r
                0x0206e328                __strtok_r
 .text          0x0206e3f8      0x20c c:/devkitpro/devkitarm/bin/../lib/gcc/arm-elf/4.0.2/../../../../arm-elf/lib/interwork\libg.a(strtol.o)
                0x0206e5d8                strtol
                0x0206e3f8                _strtol_r
 .text          0x0206e604       0x30 c:/devkitpro/devkitarm/bin/../lib/gcc/arm-elf/4.0.2/../../../../arm-elf/lib/interwork\libg.a(strtoll.o)
                0x0206e604                strtoll
 .text          0x0206e634      0x27c c:/devkitpro/devkitarm/bin/../lib/gcc/arm-elf/4.0.2/../../../../arm-elf/lib/interwork\libg.a(strtoll_r.o)
                0x0206e634                _strtoll_r
 .text          0x0206e8b0       0x7c c:/devkitpro/devkitarm/bin/../lib/gcc/arm-elf/4.0.2/../../../../arm-elf/lib/interwork\libg.a(strxfrm.o)
                0x0206e8b0                strxfrm
 .text          0x0206e92c       0x10 c:/devkitpro/devkitarm/bin/../lib/gcc/arm-elf/4.0.2/../../../../arm-elf/lib/interwork\libg.a(syswrite.o)
                0x0206e92c                write
 .text          0x0206e93c     0x1250 c:/devkitpro/devkitarm/bin/../lib/gcc/arm-elf/4.0.2/../../../../arm-elf/lib/interwork\libg.a(vfiprintf.o)
                0x0206fb60                vfiprintf
                0x0206e97c                _vfiprintf_r
 .text          0x0206fb8c     0x1ea8 c:/devkitpro/devkitarm/bin/../lib/gcc/arm-elf/4.0.2/../../../../arm-elf/lib/interwork\libg.a(vfprintf.o)
                0x0206fbcc                _vfprintf_r
                0x02071a08                vfprintf
 .text          0x02071a34       0xb4 c:/devkitpro/devkitarm/bin/../lib/gcc/arm-elf/4.0.2/../../../../arm-elf/lib/interwork\libg.a(vsprintf.o)
                0x02071a34                vsprintf
                0x02071a98                _vsprintf_r
 .text          0x02071ae8      0x100 c:/devkitpro/devkitarm/bin/../lib/gcc/arm-elf/4.0.2/../../../../arm-elf/lib/interwork\libg.a(wbuf.o)
                0x02071ae8                __swbuf
 .text          0x02071be8       0x84 c:/devkitpro/devkitarm/bin/../lib/gcc/arm-elf/4.0.2/../../../../arm-elf/lib/interwork\libg.a(wcrtomb.o)
                0x02071be8                _wcrtomb_r
                0x02071c40                wcrtomb
 .text          0x02071c6c      0x160 c:/devkitpro/devkitarm/bin/../lib/gcc/arm-elf/4.0.2/../../../../arm-elf/lib/interwork\libg.a(wcsrtombs.o)
                0x02071c6c                _wcsrtombs_r
                0x02071d88                wcsrtombs
 .text          0x02071dcc      0x408 c:/devkitpro/devkitarm/bin/../lib/gcc/arm-elf/4.0.2/../../../../arm-elf/lib/interwork\libg.a(wctomb_r.o)
                0x02071dcc                _wctomb_r
 .text          0x020721d4       0x44 c:/devkitpro/devkitarm/bin/../lib/gcc/arm-elf/4.0.2/../../../../arm-elf/lib/interwork\libg.a(writer.o)
                0x020721d4                _write_r
 .text          0x02072218      0x108 c:/devkitpro/devkitarm/bin/../lib/gcc/arm-elf/4.0.2/../../../../arm-elf/lib/interwork\libg.a(wsetup.o)
                0x02072218                __swsetup
 .text          0x02072320       0x3c c:/devkitpro/devkitarm/bin/../lib/gcc/arm-elf/4.0.2/../../../../arm-elf/lib/interwork\libg.a(closer.o)
                0x02072320                _close_r
 .text          0x0207235c     0x1638 c:/devkitpro/devkitarm/bin/../lib/gcc/arm-elf/4.0.2/../../../../arm-elf/lib/interwork\libg.a(dtoa.o)
                0x02072564                _dtoa_r
 .text          0x02073994       0xa4 c:/devkitpro/devkitarm/bin/../lib/gcc/arm-elf/4.0.2/../../../../arm-elf/lib/interwork\libg.a(flags.o)
                0x02073994                __sflags
 .text          0x02073a38       0xb0 c:/devkitpro/devkitarm/bin/../lib/gcc/arm-elf/4.0.2/../../../../arm-elf/lib/interwork\libg.a(locale.o)
                0x02073a38                _setlocale_r
                0x02073aa0                __locale_charset
                0x02073ab0                _localeconv_r
                0x02073abc                setlocale
                0x02073ad8                localeconv
 .text          0x02073ae8       0x44 c:/devkitpro/devkitarm/bin/../lib/gcc/arm-elf/4.0.2/../../../../arm-elf/lib/interwork\libg.a(lseekr.o)
                0x02073ae8                _lseek_r
 .text          0x02073b2c      0xc3c c:/devkitpro/devkitarm/bin/../lib/gcc/arm-elf/4.0.2/../../../../arm-elf/lib/interwork\libg.a(mprec.o)
                0x020746f4                _mprec_log10
                0x02073da4                _hi0bits
                0x02073b2c                _Balloc
                0x0207453c                _d2b
                0x02073eb4                _multiply
                0x02074678                _ratio
                0x02073cb0                _s2b
                0x02073e90                _i2b
                0x02073dfc                _lo0bits
                0x0207428c                __mcmp
                0x0207409c                _pow5mult
                0x02074424                _ulp
                0x02074484                _b2d
                0x02073be4                _multadd
                0x020742ec                __mdiff
                0x02074194                _lshift
                0x02073bc8                _Bfree
 .text          0x02074768       0x44 c:/devkitpro/devkitarm/bin/../lib/gcc/arm-elf/4.0.2/../../../../arm-elf/lib/interwork\libg.a(readr.o)
                0x02074768                _read_r
 .text          0x020747ac       0x3c c:/devkitpro/devkitarm/bin/../lib/gcc/arm-elf/4.0.2/../../../../arm-elf/lib/interwork\libg.a(s_isinf.o)
                0x020747ac                isinf
 .text          0x020747e8      0x524 c:/devkitpro/devkitarm/bin/../lib/gcc/arm-elf/4.0.2/interwork\libgcc.a(_umoddi3.o)
                0x020747e8                __umoddi3
 .text          0x02074d0c       0x1c c:/devkitpro/devkitarm/bin/../lib/gcc/arm-elf/4.0.2/../../../../arm-elf/lib/interwork\libsysbase.a(abort.o)
                0x02074d0c                abort
 .text          0x02074d28       0x64 c:/devkitpro/devkitarm/bin/../lib/gcc/arm-elf/4.0.2/../../../../arm-elf/lib/interwork\libsysbase.a(close.o)
                0x02074d28                _close
 .text          0x02074d8c       0x68 c:/devkitpro/devkitarm/bin/../lib/gcc/arm-elf/4.0.2/../../../../arm-elf/lib/interwork\libsysbase.a(fstat.o)
                0x02074d8c                _fstat
 .text          0x02074df4        0x8 c:/devkitpro/devkitarm/bin/../lib/gcc/arm-elf/4.0.2/../../../../arm-elf/lib/interwork\libsysbase.a(isatty.o)
                0x02074df4                isatty
 .text          0x02074dfc       0x68 c:/devkitpro/devkitarm/bin/../lib/gcc/arm-elf/4.0.2/../../../../arm-elf/lib/interwork\libsysbase.a(lseek.o)
                0x02074dfc                _lseek
 .text          0x02074e64       0x88 c:/devkitpro/devkitarm/bin/../lib/gcc/arm-elf/4.0.2/../../../../arm-elf/lib/interwork\libsysbase.a(open.o)
                0x02074e64                _open
 .text          0x02074eec       0x74 c:/devkitpro/devkitarm/bin/../lib/gcc/arm-elf/4.0.2/../../../../arm-elf/lib/interwork\libsysbase.a(read.o)
                0x02074eec                _read
 .text          0x02074f60       0x80 c:/devkitpro/devkitarm/bin/../lib/gcc/arm-elf/4.0.2/../../../../arm-elf/lib/interwork\libsysbase.a(sbrk.o)
                0x02074f60                _sbrk
 .text          0x02074fe0       0x74 c:/devkitpro/devkitarm/bin/../lib/gcc/arm-elf/4.0.2/../../../../arm-elf/lib/interwork\libsysbase.a(write.o)
                0x02074fe0                _write
 .text          0x02075054      0x110 c:/devkitpro/devkitarm/bin/../lib/gcc/arm-elf/4.0.2/../../../../arm-elf/lib/interwork\libsysbase.a(iosupport.o)
                0x0207506c                stdnull_read
                0x020750ec                AddDevice
                0x0207505c                stdnull_close
                0x02075064                stdnull_write
                0x02075074                FindDevice
                0x02075054                stdnull_open
 .text          0x02075164       0x34 c:/devkitpro/devkitarm/bin/../lib/gcc/arm-elf/4.0.2/../../../../arm-elf/lib/interwork\libc.a(exit.o)
                0x02075164                exit
 .text          0x02075198      0x16c c:/devkitpro/devkitarm/bin/../lib/gcc/arm-elf/4.0.2/../../../../arm-elf/lib/interwork\libc.a(__call_atexit.o)
                0x02075198                __call_exitprocs
 .text          0x02075304        0x4 c:/devkitpro/devkitarm/bin/../lib/gcc/arm-elf/4.0.2/../../../../arm-elf/lib/interwork\libsysbase.a(_exit.o)
                0x02075304                _exit
 .text          0x02075308       0x44 c:/devkitpro/devkitarm/bin/../lib/gcc/arm-elf/4.0.2/interwork/crtend.o

.fini           0x0207534c       0x1c
 *(.fini)
 .fini          0x0207534c        0xc c:/devkitpro/devkitarm/bin/../lib/gcc/arm-elf/4.0.2/interwork/crti.o
                0x0207534c                _fini
 .fini          0x02075358        0x4 c:/devkitpro/devkitarm/bin/../lib/gcc/arm-elf/4.0.2/interwork/crtbegin.o
 .fini          0x0207535c        0xc c:/devkitpro/devkitarm/bin/../lib/gcc/arm-elf/4.0.2/interwork/crtn.o
                0x02075368                __text_end = .

.rodata         0x02075370    0x23c8c
 *(.rodata)
 .rodata        0x02075370      0x204 BootStrap_M3_pepsiman_m3powerloader_20060117.bin.o
                0x02075574                BootStrap_M3_pepsiman_m3powerloader_20060117_bin_end
                0x02075374                BootStrap_M3_pepsiman_m3powerloader_20060117_bin
                0x02075370                BootStrap_M3_pepsiman_m3powerloader_20060117_bin_size
 .rodata        0x02075574      0x204 BootStrap_SC.bin.o
                0x02075578                BootStrap_SC_bin
                0x02075778                BootStrap_SC_bin_end
                0x02075574                BootStrap_SC_bin_size
 .rodata        0x02075778    0x13804 IMFSROM.bin.o
                0x0207577c                IMFSROM_bin
                0x02075778                IMFSROM_bin_size
                0x02088f7c                IMFSROM_bin_end
 .rodata        0x02088f7c     0x4004 _console_font_fixed6x6.bin.o
                0x02088f80                _console_font_fixed6x6_bin
                0x0208cf80                _console_font_fixed6x6_bin_end
                0x02088f7c                _console_font_fixed6x6_bin_size
 .rodata        0x0208cf80      0x5b0 cp0.glf.bin.o
                0x0208cf84                cp0_glf_bin
                0x0208cf80                cp0_glf_bin_size
                0x0208d530                cp0_glf_bin_end
 .rodata        0x0208d530      0x208 cp0.glu.bin.o
                0x0208d530                cp0_glu_bin_size
                0x0208d534                cp0_glu_bin
                0x0208d738                cp0_glu_bin_end
 .rodata        0x0208d738       0x14 cardsaver.o
 .rodata        0x0208d74c       0x34 directdisk.o
 .rodata        0x0208d780        0x8 dsCard.o
 .rodata        0x0208d788       0x10 extmem.o
 .rodata        0x0208d798      0x268 ez5_language.o
 .rodata        0x0208da00      0xb00 main.o
 .rodata        0x0208e500        0x2 shell.o
 .rodata        0x0208e502       0x18 clibdpg.o
 .rodata        0x0208e51a       0x18 plug_dpg.o
 *fill*         0x0208e532        0x2 ff
 .rodata        0x0208e534        0x4 plug_gmegbs.o
 .rodata        0x0208e538        0x4 plug_gmensf.o
 .rodata        0x0208e53c       0x60 plug_ndsrom.o
 .rodata        0x0208e59c     0x2000 crc32.o
 .rodata        0x0209059c       0x58 deflate.o
                0x0209059c                deflate_copyright
 .rodata        0x020905f4       0x26 infback.o
 .rodata        0x0209061a       0x26 inflate.o
 .rodata        0x02090640      0x12c inftrees.o
                0x02090640                inflate_copyright
 .rodata        0x0209076c      0xf28 trees.o
                0x0209076c                _length_code
                0x0209086c                _dist_code
 .rodata        0x02091694       0x28 zutil.o
                0x02091694                z_errmsg
 .rodata        0x020916bc       0x10 ../build/gba_nds_fat_2006-02-09_unicode_M3SD_ReadAlignDetect/disc_io.o
                0x020916bc                AdapterDetect
 .rodata        0x020916cc        0xd ../build/gba_nds_fat_2006-02-09_unicode_M3SD_ReadAlignDetect/gba_nds_fat.o
 .rodata        0x020916d9       0x10 ../build/gba_nds_fat_2006-02-09_unicode_M3SD_ReadAlignDetect/io_njsd.o
 .rodata        0x020916e9       0x11 ../build/gba_nds_fat_2006-02-09_unicode_M3SD_ReadAlignDetect/io_njsd_common.o
 *fill*         0x020916fa        0x6 ff
 .rodata        0x02091700       0xc0 ../build/libmpeg2/header.o
 .rodata        0x020917c0      0xc40 ../build/libmpeg2/slice.o
                0x020917c0                CBP_7
 .rodata        0x02092400        0x8 ../build/libgme/Blip_Buffer.o
 .rodata        0x02092408        0x4 ../build/libgme/Classic_Emu.o
 .rodata        0x0209240c        0x4 ../build/libgme/Effects_Buffer.o
 .rodata        0x02092410        0xc ../build/libgme/Fir_Resampler.o
 .rodata        0x0209241c       0x30 ../build/libgme/Gb_Apu.o
 .rodata        0x0209244c        0xc ../build/libgme/Gb_Oscs.o
 .rodata        0x02092458       0x58 ../build/libgme/Gbs_Emu.o
                0x02092458                Gbs_Emu::headphones_eq
                0x02092464                Gbs_Emu::handheld_eq
 .rodata        0x020924b0        0x4 ../build/libgme/Multi_Buffer.o
 .rodata        0x020924b4        0xc ../build/libgme/Music_Emu.o
                0x020924b4                Music_Emu::tv_eq
 .rodata        0x020924c0       0x20 ../build/libgme/Nes_Apu.o
 .rodata        0x020924e0      0x100 ../build/libgme/Nes_Cpu.o
 .rodata        0x020925e0       0xe0 ../build/libgme/Nes_Oscs.o
 .rodata        0x020926c0       0x1c ../build/libgme/Nsf_Emu.o
                0x020926c0                Nes_Emu::famicom_eq
                0x020926cc                Nes_Emu::nes_eq
 .rodata        0x020926dc        0x8 c:/devkitpro/libnds/lib\libnds9.a(card.o)
 .rodata        0x020926e4       0x18 c:/devkitpro/libnds/lib\libnds9.a(gbfs.o)
 .rodata        0x020926fc        0x4 c:/devkitpro/devkitarm/bin/../lib/gcc/arm-elf/4.0.2/../../../../arm-elf/lib/interwork\libstdc++.a(tinfo.o)
 .rodata        0x02092700      0x5ec c:/devkitpro/devkitarm/bin/../lib/gcc/arm-elf/4.0.2/../../../../arm-elf/lib/interwork\libstdc++.a(cp-demangle.o)
 .rodata        0x02092cec        0x4 c:/devkitpro/devkitarm/bin/../lib/gcc/arm-elf/4.0.2/../../../../arm-elf/lib/interwork\libstdc++.a(new_handler.o)
                0x02092cec                std::nothrow
 .rodata        0x02092cf0       0x10 c:/devkitpro/devkitarm/bin/../lib/gcc/arm-elf/4.0.2/../../../../arm-elf/lib/interwork\libm.a(e_fmod.o)
 .rodata        0x02092d00       0x30 c:/devkitpro/devkitarm/bin/../lib/gcc/arm-elf/4.0.2/../../../../arm-elf/lib/interwork\libm.a(e_pow.o)
 .rodata        0x02092d30      0x188 c:/devkitpro/devkitarm/bin/../lib/gcc/arm-elf/4.0.2/../../../../arm-elf/lib/interwork\libm.a(e_rem_pio2.o)
 .rodata        0x02092eb8       0x50 c:/devkitpro/devkitarm/bin/../lib/gcc/arm-elf/4.0.2/../../../../arm-elf/lib/interwork\libm.a(k_rem_pio2.o)
 .rodata        0x02092f08        0x8 c:/devkitpro/devkitarm/bin/../lib/gcc/arm-elf/4.0.2/../../../../arm-elf/lib/interwork\libm.a(s_infconst.o)
                0x02092f08                __infinity
 .rodata        0x02092f10        0x4 c:/devkitpro/devkitarm/bin/../lib/gcc/arm-elf/4.0.2/../../../../arm-elf/lib/interwork\libm.a(s_lib_ver.o)
                0x02092f10                __fdlib_version
 .rodata        0x02092f14       0x10 c:/devkitpro/devkitarm/bin/../lib/gcc/arm-elf/4.0.2/../../../../arm-elf/lib/interwork\libm.a(s_rint.o)
 .rodata        0x02092f24      0x100 c:/devkitpro/devkitarm/bin/../lib/gcc/arm-elf/4.0.2/interwork\libgcc.a(_clz.o)
                0x02092f24                __clz_tab
 .rodata        0x02093024      0x101 c:/devkitpro/devkitarm/bin/../lib/gcc/arm-elf/4.0.2/../../../../arm-elf/lib/interwork\libg.a(ctype_.o)
                0x02093024                _ctype_
 *fill*         0x02093125        0x3 ff
 .rodata        0x02093128        0x4 c:/devkitpro/devkitarm/bin/../lib/gcc/arm-elf/4.0.2/../../../../arm-elf/lib/interwork\libg.a(impure.o)
                0x02093128                _global_impure_ptr
 .rodata        0x0209312c       0x20 c:/devkitpro/devkitarm/bin/../lib/gcc/arm-elf/4.0.2/../../../../arm-elf/lib/interwork\libg.a(vfiprintf.o)
 .rodata        0x0209314c       0x28 c:/devkitpro/devkitarm/bin/../lib/gcc/arm-elf/4.0.2/../../../../arm-elf/lib/interwork\libg.a(vfprintf.o)
 .rodata        0x02093174       0x30 c:/devkitpro/devkitarm/bin/../lib/gcc/arm-elf/4.0.2/../../../../arm-elf/lib/interwork\libg.a(locale.o)
 .rodata        0x020931a4      0x124 c:/devkitpro/devkitarm/bin/../lib/gcc/arm-elf/4.0.2/../../../../arm-elf/lib/interwork\libg.a(mprec.o)
                0x020931a4                __mprec_tinytens
                0x020931f4                __mprec_tens
                0x020931cc                __mprec_bigtens
 .rodata        0x020932c8       0x1c c:/devkitpro/devkitarm/bin/../lib/gcc/arm-elf/4.0.2/../../../../arm-elf/lib/interwork\libsysbase.a(iosupport.o)
                0x020932c8                dotab_stdnull
 *all.rodata*(*)
 *(.roda)
 *(.rodata.*)
 .rodata.str1.4
                0x020932e4       0x78 FontPro.o
 .rodata.str1.4
                0x0209335c       0x1f _consoleWriteLog.o
                                 0x20 (size before relaxing)
 *fill*         0x0209337b        0x1 ff
 .rodata.str1.4
                0x0209337c      0x133 cimfs.o
                                0x134 (size before relaxing)
 *fill*         0x020934af        0x1 ff
 .rodata.str1.4
                0x020934b0      0x271 directdisk.o
                                0x27c (size before relaxing)
 *fill*         0x02093721        0x3 ff
 .rodata.str1.4
                0x02093724      0x1e2 dll.o
                                0x1e4 (size before relaxing)
 *fill*         0x02093906        0x2 ff
 .rodata.str1.4
                0x02093908       0x13 dmalink.o
                                 0x14 (size before relaxing)
 *fill*         0x0209391b        0x1 ff
 .rodata.str1.4
                0x0209391c      0x2a8 extmem.o
 .rodata.str1.4
                0x02093bc4      0x1a7 filesys.o
                                0x1b8 (size before relaxing)
 *fill*         0x02093d6b        0x1 ff
 .rodata.str1.4
                0x02093d6c        0x5 formdt.o
                                 0x14 (size before relaxing)
 *fill*         0x02093d71        0x3 ff
 .rodata.str1.4
                0x02093d74       0x62 imgcalc.o
                                 0x64 (size before relaxing)
 *fill*         0x02093dd6        0x2 ff
 .rodata.str1.4
                0x02093dd8      0x805 inifile.o
                                0x814 (size before relaxing)
 *fill*         0x020945dd        0x3 ff
 .rodata.str1.4
                0x020945e0     0x1206 main.o
                               0x1240 (size before relaxing)
 *fill*         0x020957e6        0x2 ff
 .rodata.str1.4
                0x020957e8       0xf4 memtool.o
 .rodata.str1.4
                0x020958dc      0x4ad mwin.o
                                0x4dc (size before relaxing)
 *fill*         0x02095d89        0x3 ff
 .rodata.str1.4
                0x02095d8c       0x86 resume.o
                                 0xb8 (size before relaxing)
 *fill*         0x02095e12        0x2 ff
 .rodata.str1.4
                0x02095e14      0x11e shell.o
                                0x13c (size before relaxing)
 .rodata.str1.4
                0x02095f32        0x0 thumb.o
                                 0x5c (size before relaxing)
 *fill*         0x02095f32        0x2 ff
 .rodata.str1.4
                0x02095f34       0x55 unicode.o
                                 0x58 (size before relaxing)
 *fill*         0x02095f89        0x3 ff
 .rodata.str1.4
                0x02095f8c      0x11f zlibhelp.o
                                0x12c (size before relaxing)
 *fill*         0x020960ab        0x1 ff
 .rodata.str1.4
                0x020960ac       0x1a glmemtool.o
                                 0xfc (size before relaxing)
 *fill*         0x020960c6        0x2 ff
 .rodata.str1.4
                0x020960c8       0xd9 clibdpg.o
                                 0xdc (size before relaxing)
 *fill*         0x020961a1        0x3 ff
 .rodata.str1.4
                0x020961a4       0xee clibmpg.o
                                 0xf0 (size before relaxing)
 *fill*         0x02096292        0x2 ff
 .rodata.str1.4
                0x02096294       0xaa plug_dpg.o
                                 0xac (size before relaxing)
 *fill*         0x0209633e        0x2 ff
 .rodata.str1.4
                0x02096340       0x73 plug_fpk.o
                                 0x74 (size before relaxing)
 *fill*         0x020963b3        0x1 ff
 .rodata.str1.4
                0x020963b4      0x16f plug_gmegbs.o
                                0x174 (size before relaxing)
 *fill*         0x02096523        0x1 ff
 .rodata.str1.4
                0x02096524      0x23d plug_gmensf.o
                                0x2dc (size before relaxing)
 *fill*         0x02096761        0x3 ff
 .rodata.str1.4
                0x02096764       0xea plug_gsm.o
                                 0xec (size before relaxing)
 *fill*         0x0209684e        0x2 ff
 .rodata.str1.4
                0x02096850       0x1a plug_mp2.o
                                 0x1c (size before relaxing)
 *fill*         0x0209686a        0x2 ff
 .rodata.str1.4
                0x0209686c      0x1ab plug_ndsrom.o
                                0x1c8 (size before relaxing)
 *fill*         0x02096a17        0x1 ff
 .rodata.str1.4
                0x02096a18      0x320 plug_text.o
 .rodata.str1.4
                0x02096d38       0xf7 plug_text_bookmark.o
                                0x12c (size before relaxing)
 *fill*         0x02096e2f        0x1 ff
 .rodata.str1.4
                0x02096e30      0x116 infback.o
                                0x118 (size before relaxing)
 .rodata.str1.4
                0x02096f46        0x0 inffast.o
                                 0x54 (size before relaxing)
 *fill*         0x02096f46        0x2 ff
 .rodata.str1.4
                0x02096f48       0x5d inflate.o
                                0x178 (size before relaxing)
 *fill*         0x02096fa5        0x3 ff
 .rodata.str1.4
                0x02096fa8       0x7f zutil.o
                                 0x8c (size before relaxing)
 *fill*         0x02097027        0x1 ff
 .rodata.str1.4
                0x02097028       0x57 ../build/gba_nds_fat_2006-02-09_unicode_M3SD_ReadAlignDetect/disc_io.o
                                 0x60 (size before relaxing)
 *fill*         0x0209707f        0x1 ff
 .rodata.str1.4
                0x02097080       0x17 ../build/gba_nds_fat_2006-02-09_unicode_M3SD_ReadAlignDetect/gba_nds_fat.o
                                 0x1c (size before relaxing)
 *fill*         0x02097097        0x1 ff
 .rodata.str1.4
                0x02097098       0xe0 ../build/libgme/Blip_Buffer.o
                                 0xe4 (size before relaxing)
 .rodata.str1.4
                0x02097178      0x162 ../build/libgme/Classic_Emu.o
                                0x178 (size before relaxing)
 *fill*         0x020972da        0x2 ff
 .rodata.str1.4
                0x020972dc      0x19a ../build/libgme/Dual_Resampler.o
                                0x1ac (size before relaxing)
 *fill*         0x02097476        0x2 ff
 .rodata.str1.4
                0x02097478       0x6b ../build/libgme/Effects_Buffer.o
                                 0x7c (size before relaxing)
 .rodata.str1.4
                0x020974e3        0x0 ../build/libgme/Fir_Resampler.o
                                 0x6c (size before relaxing)
 *fill*         0x020974e3        0x1 ff
 .rodata.str1.4
                0x020974e4      0x1c0 ../build/libgme/Gb_Apu.o
 .rodata.str1.4
                0x020976a4       0x7a ../build/libgme/Gb_Cpu.o
                                 0x84 (size before relaxing)
 .rodata.str1.4
                0x0209771e        0x0 ../build/libgme/Gb_Oscs.o
                                 0x90 (size before relaxing)
 *fill*         0x0209771e        0x2 ff
 .rodata.str1.4
                0x02097720       0xab ../build/libgme/Gbs_Emu.o
                                0x178 (size before relaxing)
 *fill*         0x020977cb        0x1 ff
 .rodata.str1.4
                0x020977cc       0x5d ../build/libgme/Multi_Buffer.o
                                 0x60 (size before relaxing)
 *fill*         0x02097829        0x3 ff
 .rodata.str1.4
                0x0209782c       0x40 ../build/libgme/Music_Emu.o
 .rodata.str1.4
                0x0209786c      0x12c ../build/libgme/Nes_Apu.o
                                0x1e4 (size before relaxing)
 .rodata.str1.4
                0x02097998      0x105 ../build/libgme/Nes_Cpu.o
                                0x140 (size before relaxing)
 *fill*         0x02097a9d        0x3 ff
 .rodata.str1.4
                0x02097aa0       0x50 ../build/libgme/Nes_Fme7_Apu.o
                                 0xf8 (size before relaxing)
 .rodata.str1.4
                0x02097af0       0xd2 ../build/libgme/Nes_Namco_Apu.o
                                0x164 (size before relaxing)
 *fill*         0x02097bc2        0x2 ff
 .rodata.str1.4
                0x02097bc4       0xcb ../build/libgme/Nes_Oscs.o
                                0x15c (size before relaxing)
 *fill*         0x02097c8f        0x1 ff
 .rodata.str1.4
                0x02097c90       0xdf ../build/libgme/Nes_Vrc6_Apu.o
                                0x1b4 (size before relaxing)
 *fill*         0x02097d6f        0x1 ff
 .rodata.str1.4
                0x02097d70      0x1cb ../build/libgme/Nsf_Emu.o
                                0x3fc (size before relaxing)
 *fill*         0x02097f3b        0x1 ff
 .rodata.str1.4
                0x02097f3c      0x147 ../build/libgme/abstract_file.o
                                0x15c (size before relaxing)
 *fill*         0x02098083        0x1 ff
 .rodata.str1.4
                0x02098084        0xd c:/devkitpro/libnds/lib\libnds9.a(gbfs.o)
                                 0x10 (size before relaxing)
 *fill*         0x02098091        0x3 ff
 .rodata.str1.4
                0x02098094       0x1c c:/devkitpro/devkitarm/bin/../lib/gcc/arm-elf/4.0.2/../../../../arm-elf/lib/interwork\libstdc++.a(pure.o)
 .rodata.str1.4
                0x020980b0       0x92 c:/devkitpro/devkitarm/bin/../lib/gcc/arm-elf/4.0.2/../../../../arm-elf/lib/interwork\libstdc++.a(vterminate.o)
                                 0x94 (size before relaxing)
 *fill*         0x02098142        0x2 ff
 .rodata.str1.4
                0x02098144      0x5b5 c:/devkitpro/devkitarm/bin/../lib/gcc/arm-elf/4.0.2/../../../../arm-elf/lib/interwork\libstdc++.a(cp-demangle.o)
                                0x61c (size before relaxing)
 *fill*         0x020986f9        0x3 ff
 .rodata.str1.4
                0x020986fc        0x5 c:/devkitpro/devkitarm/bin/../lib/gcc/arm-elf/4.0.2/../../../../arm-elf/lib/interwork\libm.a(w_fmod.o)
                                  0x8 (size before relaxing)
 *fill*         0x02098701        0x3 ff
 .rodata.str1.4
                0x02098704        0x4 c:/devkitpro/devkitarm/bin/../lib/gcc/arm-elf/4.0.2/../../../../arm-elf/lib/interwork\libm.a(w_pow.o)
 .rodata.str1.4
                0x02098708       0x2b c:/devkitpro/devkitarm/bin/../lib/gcc/arm-elf/4.0.2/../../../../arm-elf/lib/interwork\libg.a(assert.o)
                                 0x2c (size before relaxing)
 *fill*         0x02098733        0x1 ff
 .rodata.str1.4
                0x02098734        0x2 c:/devkitpro/devkitarm/bin/../lib/gcc/arm-elf/4.0.2/../../../../arm-elf/lib/interwork\libg.a(impure.o)
                                  0x4 (size before relaxing)
 *fill*         0x02098736        0x2 ff
 .rodata.str1.4
                0x02098738       0x4a c:/devkitpro/devkitarm/bin/../lib/gcc/arm-elf/4.0.2/../../../../arm-elf/lib/interwork\libg.a(vfiprintf.o)
                                 0x4c (size before relaxing)
 *fill*         0x02098782        0x2 ff
 .rodata.str1.4
                0x02098784        0x8 c:/devkitpro/devkitarm/bin/../lib/gcc/arm-elf/4.0.2/../../../../arm-elf/lib/interwork\libg.a(vfprintf.o)
                                 0x5c (size before relaxing)
 .rodata.str1.4
                0x0209878c       0x1e c:/devkitpro/devkitarm/bin/../lib/gcc/arm-elf/4.0.2/../../../../arm-elf/lib/interwork\libg.a(wctomb_r.o)
                                 0x20 (size before relaxing)
 *fill*         0x020987aa        0x2 ff
 .rodata.str1.4
                0x020987ac        0x9 c:/devkitpro/devkitarm/bin/../lib/gcc/arm-elf/4.0.2/../../../../arm-elf/lib/interwork\libg.a(dtoa.o)
                                 0x14 (size before relaxing)
 *fill*         0x020987b5        0x3 ff
 .rodata.str1.4
                0x020987b8        0xb c:/devkitpro/devkitarm/bin/../lib/gcc/arm-elf/4.0.2/../../../../arm-elf/lib/interwork\libg.a(locale.o)
                                 0x18 (size before relaxing)
 *fill*         0x020987c3        0x1 ff
 .rodata.str1.4
                0x020987c4        0xf c:/devkitpro/devkitarm/bin/../lib/gcc/arm-elf/4.0.2/../../../../arm-elf/lib/interwork\libsysbase.a(abort.o)
                                 0x10 (size before relaxing)
 *fill*         0x020987d3        0x1 ff
 .rodata.str1.4
                0x020987d4        0x8 c:/devkitpro/devkitarm/bin/../lib/gcc/arm-elf/4.0.2/../../../../arm-elf/lib/interwork\libsysbase.a(iosupport.o)
 *(.gnu.linkonce.r*)
 .gnu.linkonce.r._ZTI7CStream
                0x020987dc        0x8 cstream.o
                0x020987dc                typeinfo for CStream
 .gnu.linkonce.r._ZTS7CStream
                0x020987e4        0xc cstream.o
                0x020987e4                typeinfo name for CStream
 .gnu.linkonce.r._ZTV7CStream
                0x020987f0       0x38 cstream.o
                0x020987f0                vtable for CStream
 .gnu.linkonce.r._ZTI9CStreamFS
                0x02098828        0xc cstream_fs.o
                0x02098828                typeinfo for CStreamFS
 .gnu.linkonce.r._ZTS9CStreamFS
                0x02098834        0xc cstream_fs.o
                0x02098834                typeinfo name for CStreamFS
 .gnu.linkonce.r._ZTV9CStreamFS
                0x02098840       0x38 cstream_fs.o
                0x02098840                vtable for CStreamFS
 .gnu.linkonce.r._ZTI13Silent_Buffer
                0x02098878        0xc plug_gmegbs.o
                0x02098878                typeinfo for Silent_Buffer
 .gnu.linkonce.r._ZTS13Silent_Buffer
                0x02098884       0x10 plug_gmegbs.o
                0x02098884                typeinfo name for Silent_Buffer
 .gnu.linkonce.r._ZTV13Silent_Buffer
                0x02098894       0x34 plug_gmegbs.o
                0x02098894                vtable for Silent_Buffer
 .gnu.linkonce.r._ZTI11Classic_Emu
                0x020988c8        0xc ../build/libgme/Classic_Emu.o
                0x020988c8                typeinfo for Classic_Emu
 .gnu.linkonce.r._ZTS11Classic_Emu
                0x020988d4       0x10 ../build/libgme/Classic_Emu.o
                0x020988d4                typeinfo name for Classic_Emu
 .gnu.linkonce.r._ZTV11Classic_Emu
                0x020988e4       0x48 ../build/libgme/Classic_Emu.o
                0x020988e4                vtable for Classic_Emu
 .gnu.linkonce.r._ZTI14Dual_Resampler
                0x0209892c        0x8 ../build/libgme/Dual_Resampler.o
                0x0209892c                typeinfo for Dual_Resampler
 .gnu.linkonce.r._ZTS14Dual_Resampler
                0x02098934       0x14 ../build/libgme/Dual_Resampler.o
                0x02098934                typeinfo name for Dual_Resampler
 .gnu.linkonce.r._ZTV14Dual_Resampler
                0x02098948       0x14 ../build/libgme/Dual_Resampler.o
                0x02098948                vtable for Dual_Resampler
 .gnu.linkonce.r._ZTI14Effects_Buffer
                0x0209895c        0xc ../build/libgme/Effects_Buffer.o
                0x0209895c                typeinfo for Effects_Buffer
 .gnu.linkonce.r._ZTS14Effects_Buffer
                0x02098968       0x14 ../build/libgme/Effects_Buffer.o
                0x02098968                typeinfo name for Effects_Buffer
 .gnu.linkonce.r._ZTV14Effects_Buffer
                0x0209897c       0x34 ../build/libgme/Effects_Buffer.o
                0x0209897c                vtable for Effects_Buffer
 .gnu.linkonce.r._ZTI7Gbs_Emu
                0x020989b0        0xc ../build/libgme/Gbs_Emu.o
                0x020989b0                typeinfo for Gbs_Emu
 .gnu.linkonce.r._ZTS7Gbs_Emu
                0x020989bc        0xc ../build/libgme/Gbs_Emu.o
                0x020989bc                typeinfo name for Gbs_Emu
 .gnu.linkonce.r._ZTV7Gbs_Emu
                0x020989c8       0x48 ../build/libgme/Gbs_Emu.o
                0x020989c8                vtable for Gbs_Emu
 .gnu.linkonce.r._ZTI12Multi_Buffer
                0x02098a10        0x8 ../build/libgme/Multi_Buffer.o
                0x02098a10                typeinfo for Multi_Buffer
 .gnu.linkonce.r._ZTS12Multi_Buffer
                0x02098a18       0x10 ../build/libgme/Multi_Buffer.o
                0x02098a18                typeinfo name for Multi_Buffer
 .gnu.linkonce.r._ZTI11Mono_Buffer
                0x02098a28        0xc ../build/libgme/Multi_Buffer.o
                0x02098a28                typeinfo for Mono_Buffer
 .gnu.linkonce.r._ZTS11Mono_Buffer
                0x02098a34       0x10 ../build/libgme/Multi_Buffer.o
                0x02098a34                typeinfo name for Mono_Buffer
 .gnu.linkonce.r._ZTI13Stereo_Buffer
                0x02098a44        0xc ../build/libgme/Multi_Buffer.o
                0x02098a44                typeinfo for Stereo_Buffer
 .gnu.linkonce.r._ZTS13Stereo_Buffer
                0x02098a50       0x10 ../build/libgme/Multi_Buffer.o
                0x02098a50                typeinfo name for Stereo_Buffer
 .gnu.linkonce.r._ZTV12Multi_Buffer
                0x02098a60       0x34 ../build/libgme/Multi_Buffer.o
                0x02098a60                vtable for Multi_Buffer
 .gnu.linkonce.r._ZTV11Mono_Buffer
                0x02098a94       0x34 ../build/libgme/Multi_Buffer.o
                0x02098a94                vtable for Mono_Buffer
 .gnu.linkonce.r._ZTV13Stereo_Buffer
                0x02098ac8       0x34 ../build/libgme/Multi_Buffer.o
                0x02098ac8                vtable for Stereo_Buffer
 .gnu.linkonce.r._ZTI9Music_Emu
                0x02098afc        0x8 ../build/libgme/Music_Emu.o
                0x02098afc                typeinfo for Music_Emu
 .gnu.linkonce.r._ZTS9Music_Emu
                0x02098b04        0xc ../build/libgme/Music_Emu.o
                0x02098b04                typeinfo name for Music_Emu
 .gnu.linkonce.r._ZTV9Music_Emu
                0x02098b10       0x34 ../build/libgme/Music_Emu.o
                0x02098b10                vtable for Music_Emu
 .gnu.linkonce.r._ZTI7Nes_Emu
                0x02098b44        0xc ../build/libgme/Nsf_Emu.o
                0x02098b44                typeinfo for Nes_Emu
 .gnu.linkonce.r._ZTS7Nes_Emu
                0x02098b50        0xc ../build/libgme/Nsf_Emu.o
                0x02098b50                typeinfo name for Nes_Emu
 .gnu.linkonce.r._ZTV7Nes_Emu
                0x02098b5c       0x4c ../build/libgme/Nsf_Emu.o
                0x02098b5c                vtable for Nes_Emu
 .gnu.linkonce.r._ZTI11Data_Reader
                0x02098ba8        0x8 ../build/libgme/abstract_file.o
                0x02098ba8                typeinfo for Data_Reader
 .gnu.linkonce.r._ZTS11Data_Reader
                0x02098bb0       0x10 ../build/libgme/abstract_file.o
                0x02098bb0                typeinfo name for Data_Reader
 .gnu.linkonce.r._ZTI11File_Reader
                0x02098bc0        0xc ../build/libgme/abstract_file.o
                0x02098bc0                typeinfo for File_Reader
 .gnu.linkonce.r._ZTS11File_Reader
                0x02098bcc       0x10 ../build/libgme/abstract_file.o
                0x02098bcc                typeinfo name for File_Reader
 .gnu.linkonce.r._ZTI13Subset_Reader
                0x02098bdc        0xc ../build/libgme/abstract_file.o
                0x02098bdc                typeinfo for Subset_Reader
 .gnu.linkonce.r._ZTS13Subset_Reader
                0x02098be8       0x10 ../build/libgme/abstract_file.o
                0x02098be8                typeinfo name for Subset_Reader
 .gnu.linkonce.r._ZTI15Mem_File_Reader
                0x02098bf8        0xc ../build/libgme/abstract_file.o
                0x02098bf8                typeinfo for Mem_File_Reader
 .gnu.linkonce.r._ZTS15Mem_File_Reader
                0x02098c04       0x14 ../build/libgme/abstract_file.o
                0x02098c04                typeinfo name for Mem_File_Reader
 .gnu.linkonce.r._ZTI15Std_File_Reader
                0x02098c18        0xc ../build/libgme/abstract_file.o
                0x02098c18                typeinfo for Std_File_Reader
 .gnu.linkonce.r._ZTS15Std_File_Reader
                0x02098c24       0x14 ../build/libgme/abstract_file.o
                0x02098c24                typeinfo name for Std_File_Reader
 .gnu.linkonce.r._ZTI15Std_File_Writer
                0x02098c38        0xc ../build/libgme/abstract_file.o
                0x02098c38                typeinfo for Std_File_Writer
 .gnu.linkonce.r._ZTI11Data_Writer
                0x02098c44        0x8 ../build/libgme/abstract_file.o
                0x02098c44                typeinfo for Data_Writer
 .gnu.linkonce.r._ZTS11Data_Writer
                0x02098c4c       0x10 ../build/libgme/abstract_file.o
                0x02098c4c                typeinfo name for Data_Writer
 .gnu.linkonce.r._ZTS15Std_File_Writer
                0x02098c5c       0x14 ../build/libgme/abstract_file.o
                0x02098c5c                typeinfo name for Std_File_Writer
 .gnu.linkonce.r._ZTI10Mem_Writer
                0x02098c70        0xc ../build/libgme/abstract_file.o
                0x02098c70                typeinfo for Mem_Writer
 .gnu.linkonce.r._ZTS10Mem_Writer
                0x02098c7c       0x10 ../build/libgme/abstract_file.o
                0x02098c7c                typeinfo name for Mem_Writer
 .gnu.linkonce.r._ZTI11Null_Writer
                0x02098c8c        0xc ../build/libgme/abstract_file.o
                0x02098c8c                typeinfo for Null_Writer
 .gnu.linkonce.r._ZTS11Null_Writer
                0x02098c98       0x10 ../build/libgme/abstract_file.o
                0x02098c98                typeinfo name for Null_Writer
 .gnu.linkonce.r._ZTV11Data_Reader
                0x02098ca8       0x20 ../build/libgme/abstract_file.o
                0x02098ca8                vtable for Data_Reader
 .gnu.linkonce.r._ZTV11File_Reader
                0x02098cc8       0x2c ../build/libgme/abstract_file.o
                0x02098cc8                vtable for File_Reader
 .gnu.linkonce.r._ZTV13Subset_Reader
                0x02098cf4       0x20 ../build/libgme/abstract_file.o
                0x02098cf4                vtable for Subset_Reader
 .gnu.linkonce.r._ZTV15Mem_File_Reader
                0x02098d14       0x2c ../build/libgme/abstract_file.o
                0x02098d14                vtable for Mem_File_Reader
 .gnu.linkonce.r._ZTV15Std_File_Reader
                0x02098d40       0x2c ../build/libgme/abstract_file.o
                0x02098d40                vtable for Std_File_Reader
 .gnu.linkonce.r._ZTV15Std_File_Writer
                0x02098d6c       0x14 ../build/libgme/abstract_file.o
                0x02098d6c                vtable for Std_File_Writer
 .gnu.linkonce.r._ZTV10Mem_Writer
                0x02098d80       0x14 ../build/libgme/abstract_file.o
                0x02098d80                vtable for Mem_Writer
 .gnu.linkonce.r._ZTV11Null_Writer
                0x02098d94       0x14 ../build/libgme/abstract_file.o
                0x02098d94                vtable for Null_Writer
 .gnu.linkonce.r._ZTV11Data_Writer
                0x02098da8       0x14 ../build/libgme/abstract_file.o
                0x02098da8                vtable for Data_Writer
 .gnu.linkonce.r._ZTISt9type_info
                0x02098dbc        0x8 c:/devkitpro/devkitarm/bin/../lib/gcc/arm-elf/4.0.2/../../../../arm-elf/lib/interwork\libstdc++.a(tinfo.o)
                0x02098dbc                typeinfo for std::type_info
 .gnu.linkonce.r._ZTSSt9type_info
                0x02098dc4       0x10 c:/devkitpro/devkitarm/bin/../lib/gcc/arm-elf/4.0.2/../../../../arm-elf/lib/interwork\libstdc++.a(tinfo.o)
                0x02098dc4                typeinfo name for std::type_info
 .gnu.linkonce.r._ZTISt8bad_cast
                0x02098dd4        0xc c:/devkitpro/devkitarm/bin/../lib/gcc/arm-elf/4.0.2/../../../../arm-elf/lib/interwork\libstdc++.a(tinfo.o)
                0x02098dd4                typeinfo for std::bad_cast
 .gnu.linkonce.r._ZTSSt8bad_cast
                0x02098de0        0xc c:/devkitpro/devkitarm/bin/../lib/gcc/arm-elf/4.0.2/../../../../arm-elf/lib/interwork\libstdc++.a(tinfo.o)
                0x02098de0                typeinfo name for std::bad_cast
 .gnu.linkonce.r._ZTISt10bad_typeid
                0x02098dec        0xc c:/devkitpro/devkitarm/bin/../lib/gcc/arm-elf/4.0.2/../../../../arm-elf/lib/interwork\libstdc++.a(tinfo.o)
                0x02098dec                typeinfo for std::bad_typeid
 .gnu.linkonce.r._ZTSSt10bad_typeid
                0x02098df8       0x10 c:/devkitpro/devkitarm/bin/../lib/gcc/arm-elf/4.0.2/../../../../arm-elf/lib/interwork\libstdc++.a(tinfo.o)
                0x02098df8                typeinfo name for std::bad_typeid
 .gnu.linkonce.r._ZTIN10__cxxabiv117__class_type_infoE
                0x02098e08        0xc c:/devkitpro/devkitarm/bin/../lib/gcc/arm-elf/4.0.2/../../../../arm-elf/lib/interwork\libstdc++.a(tinfo.o)
                0x02098e08                typeinfo for __cxxabiv1::__class_type_info
 .gnu.linkonce.r._ZTSN10__cxxabiv117__class_type_infoE
                0x02098e14       0x24 c:/devkitpro/devkitarm/bin/../lib/gcc/arm-elf/4.0.2/../../../../arm-elf/lib/interwork\libstdc++.a(tinfo.o)
                0x02098e14                typeinfo name for __cxxabiv1::__class_type_info
 .gnu.linkonce.r._ZTIN10__cxxabiv120__si_class_type_infoE
                0x02098e38        0xc c:/devkitpro/devkitarm/bin/../lib/gcc/arm-elf/4.0.2/../../../../arm-elf/lib/interwork\libstdc++.a(tinfo.o)
                0x02098e38                typeinfo for __cxxabiv1::__si_class_type_info
 .gnu.linkonce.r._ZTSN10__cxxabiv120__si_class_type_infoE
                0x02098e44       0x28 c:/devkitpro/devkitarm/bin/../lib/gcc/arm-elf/4.0.2/../../../../arm-elf/lib/interwork\libstdc++.a(tinfo.o)
                0x02098e44                typeinfo name for __cxxabiv1::__si_class_type_info
 .gnu.linkonce.r._ZTIN10__cxxabiv121__vmi_class_type_infoE
                0x02098e6c        0xc c:/devkitpro/devkitarm/bin/../lib/gcc/arm-elf/4.0.2/../../../../arm-elf/lib/interwork\libstdc++.a(tinfo.o)
                0x02098e6c                typeinfo for __cxxabiv1::__vmi_class_type_info
 .gnu.linkonce.r._ZTSN10__cxxabiv121__vmi_class_type_infoE
                0x02098e78       0x28 c:/devkitpro/devkitarm/bin/../lib/gcc/arm-elf/4.0.2/../../../../arm-elf/lib/interwork\libstdc++.a(tinfo.o)
                0x02098e78                typeinfo name for __cxxabiv1::__vmi_class_type_info
 .gnu.linkonce.r._ZTVSt9type_info
                0x02098ea0       0x20 c:/devkitpro/devkitarm/bin/../lib/gcc/arm-elf/4.0.2/../../../../arm-elf/lib/interwork\libstdc++.a(tinfo.o)
                0x02098ea0                vtable for std::type_info
 .gnu.linkonce.r._ZTVSt8bad_cast
                0x02098ec0       0x14 c:/devkitpro/devkitarm/bin/../lib/gcc/arm-elf/4.0.2/../../../../arm-elf/lib/interwork\libstdc++.a(tinfo.o)
                0x02098ec0                vtable for std::bad_cast
 .gnu.linkonce.r._ZTVSt10bad_typeid
                0x02098ed4       0x14 c:/devkitpro/devkitarm/bin/../lib/gcc/arm-elf/4.0.2/../../../../arm-elf/lib/interwork\libstdc++.a(tinfo.o)
                0x02098ed4                vtable for std::bad_typeid
 .gnu.linkonce.r._ZTVN10__cxxabiv117__class_type_infoE
                0x02098ee8       0x2c c:/devkitpro/devkitarm/bin/../lib/gcc/arm-elf/4.0.2/../../../../arm-elf/lib/interwork\libstdc++.a(tinfo.o)
                0x02098ee8                vtable for __cxxabiv1::__class_type_info
 .gnu.linkonce.r._ZTVN10__cxxabiv120__si_class_type_infoE
                0x02098f14       0x2c c:/devkitpro/devkitarm/bin/../lib/gcc/arm-elf/4.0.2/../../../../arm-elf/lib/interwork\libstdc++.a(tinfo.o)
                0x02098f14                vtable for __cxxabiv1::__si_class_type_info
 .gnu.linkonce.r._ZTVN10__cxxabiv121__vmi_class_type_infoE
                0x02098f40       0x2c c:/devkitpro/devkitarm/bin/../lib/gcc/arm-elf/4.0.2/../../../../arm-elf/lib/interwork\libstdc++.a(tinfo.o)
                0x02098f40                vtable for __cxxabiv1::__vmi_class_type_info
 .gnu.linkonce.r._ZTISt9exception
                0x02098f6c        0x8 c:/devkitpro/devkitarm/bin/../lib/gcc/arm-elf/4.0.2/../../../../arm-elf/lib/interwork\libstdc++.a(eh_exception.o)
                0x02098f6c                typeinfo for std::exception
 .gnu.linkonce.r._ZTSSt9exception
                0x02098f74       0x10 c:/devkitpro/devkitarm/bin/../lib/gcc/arm-elf/4.0.2/../../../../arm-elf/lib/interwork\libstdc++.a(eh_exception.o)
                0x02098f74                typeinfo name for std::exception
 .gnu.linkonce.r._ZTISt13bad_exception
                0x02098f84        0xc c:/devkitpro/devkitarm/bin/../lib/gcc/arm-elf/4.0.2/../../../../arm-elf/lib/interwork\libstdc++.a(eh_exception.o)
                0x02098f84                typeinfo for std::bad_exception
 .gnu.linkonce.r._ZTSSt13bad_exception
                0x02098f90       0x14 c:/devkitpro/devkitarm/bin/../lib/gcc/arm-elf/4.0.2/../../../../arm-elf/lib/interwork\libstdc++.a(eh_exception.o)
                0x02098f90                typeinfo name for std::bad_exception
 .gnu.linkonce.r._ZTVSt9exception
                0x02098fa4       0x14 c:/devkitpro/devkitarm/bin/../lib/gcc/arm-elf/4.0.2/../../../../arm-elf/lib/interwork\libstdc++.a(eh_exception.o)
                0x02098fa4                vtable for std::exception
 .gnu.linkonce.r._ZTVSt13bad_exception
                0x02098fb8       0x14 c:/devkitpro/devkitarm/bin/../lib/gcc/arm-elf/4.0.2/../../../../arm-elf/lib/interwork\libstdc++.a(eh_exception.o)
                0x02098fb8                vtable for std::bad_exception
 .gnu.linkonce.r._ZTISt9bad_alloc
                0x02098fcc        0xc c:/devkitpro/devkitarm/bin/../lib/gcc/arm-elf/4.0.2/../../../../arm-elf/lib/interwork\libstdc++.a(new_handler.o)
                0x02098fcc                typeinfo for std::bad_alloc
 .gnu.linkonce.r._ZTSSt9bad_alloc
                0x02098fd8       0x10 c:/devkitpro/devkitarm/bin/../lib/gcc/arm-elf/4.0.2/../../../../arm-elf/lib/interwork\libstdc++.a(new_handler.o)
                0x02098fd8                typeinfo name for std::bad_alloc
 .gnu.linkonce.r._ZTVSt9bad_alloc
                0x02098fe8       0x14 c:/devkitpro/devkitarm/bin/../lib/gcc/arm-elf/4.0.2/../../../../arm-elf/lib/interwork\libstdc++.a(new_handler.o)
                0x02098fe8                vtable for std::bad_alloc
                0x02098ffc                . = ALIGN (0x4)

.ctors          0x02098ffc       0x10
 *crtbegin.o(.ctors)
 .ctors         0x02098ffc        0x4 c:/devkitpro/devkitarm/bin/../lib/gcc/arm-elf/4.0.2/interwork/crtbegin.o
 *(EXCLUDE_FILE(*crtend.o) .ctors)
 .ctors         0x02099000        0x4 plug_gmegbs.o
 .ctors         0x02099004        0x4 plug_gmensf.o
 *(SORT(.ctors.*))
 *(.ctors)
 .ctors         0x02099008        0x4 c:/devkitpro/devkitarm/bin/../lib/gcc/arm-elf/4.0.2/interwork/crtend.o
                0x0209900c                . = ALIGN (0x4)

.dtors          0x0209900c        0x8
 *crtbegin.o(.dtors)
 .dtors         0x0209900c        0x4 c:/devkitpro/devkitarm/bin/../lib/gcc/arm-elf/4.0.2/interwork/crtbegin.o
 *(EXCLUDE_FILE(*crtend.o) .dtors)
 *(SORT(.dtors.*))
 *(.dtors)
 .dtors         0x02099010        0x4 c:/devkitpro/devkitarm/bin/../lib/gcc/arm-elf/4.0.2/interwork/crtend.o
                0x02099014                . = ALIGN (0x4)

.eh_frame       0x02099014        0x4
 *(.eh_frame)
 .eh_frame      0x02099014        0x4 c:/devkitpro/devkitarm/bin/../lib/gcc/arm-elf/4.0.2/interwork/crtend.o
                0x02099018                . = ALIGN (0x4)

.gcc_except_table
                0x02099018      0x264
 *(.gcc_except_table)
 .gcc_except_table
                0x02099018        0xc cstream_fs.o
 .gcc_except_table
                0x02099024        0xe main.o
 .gcc_except_table
                0x02099032       0x10 cglb15.o
 .gcc_except_table
                0x02099042       0x10 cglcanvas.o
 .gcc_except_table
                0x02099052        0xc cglfont.o
 .gcc_except_table
                0x0209905e        0xc cglscreenmain.o
 .gcc_except_table
                0x0209906a        0xc cglscreenoverlay.o
 .gcc_except_table
                0x02099076        0xc cglscreensub.o
 .gcc_except_table
                0x02099082        0xc cgltgf.o
 .gcc_except_table
                0x0209908e        0xc cglunicode.o
 .gcc_except_table
                0x0209909a        0xa glglobal.o
 .gcc_except_table
                0x020990a4        0xc clibdpg.o
 .gcc_except_table
                0x020990b0        0xa plug_dpg.o
 .gcc_except_table
                0x020990ba        0x6 plug_fpk.o
 .gcc_except_table
                0x020990c0        0xa plug_gmegbs.o
 .gcc_except_table
                0x020990ca        0xa plug_gmensf.o
 .gcc_except_table
                0x020990d4       0x18 ../build/libgme/Classic_Emu.o
 .gcc_except_table
                0x020990ec       0x1e ../build/libgme/Dual_Resampler.o
 .gcc_except_table
                0x0209910a       0x1e ../build/libgme/Effects_Buffer.o
 .gcc_except_table
                0x02099128       0x22 ../build/libgme/Gbs_Emu.o
 .gcc_except_table
                0x0209914a       0x3c ../build/libgme/Multi_Buffer.o
 .gcc_except_table
                0x02099186        0x6 ../build/libgme/Music_Emu.o
 .gcc_except_table
                0x0209918c       0x2e ../build/libgme/Nsf_Emu.o
 .gcc_except_table
                0x020991ba       0x30 ../build/libgme/abstract_file.o
 *fill*         0x020991ea        0x2 ff
 .gcc_except_table
                0x020991ec       0x20 c:/devkitpro/devkitarm/bin/../lib/gcc/arm-elf/4.0.2/../../../../arm-elf/lib/interwork\libstdc++.a(eh_personality.o)
 .gcc_except_table
                0x0209920c       0x10 c:/devkitpro/devkitarm/bin/../lib/gcc/arm-elf/4.0.2/../../../../arm-elf/lib/interwork\libstdc++.a(eh_terminate.o)
 .gcc_except_table
                0x0209921c       0x14 c:/devkitpro/devkitarm/bin/../lib/gcc/arm-elf/4.0.2/../../../../arm-elf/lib/interwork\libstdc++.a(new_op.o)
 .gcc_except_table
                0x02099230       0x14 c:/devkitpro/devkitarm/bin/../lib/gcc/arm-elf/4.0.2/../../../../arm-elf/lib/interwork\libstdc++.a(new_opv.o)
 .gcc_except_table
                0x02099244       0x18 c:/devkitpro/devkitarm/bin/../lib/gcc/arm-elf/4.0.2/../../../../arm-elf/lib/interwork\libstdc++.a(vterminate.o)
 .gcc_except_table
                0x0209925c       0x10 c:/devkitpro/devkitarm/bin/../lib/gcc/arm-elf/4.0.2/../../../../arm-elf/lib/interwork\libstdc++.a(eh_alloc.o)
 .gcc_except_table
                0x0209926c       0x10 c:/devkitpro/devkitarm/bin/../lib/gcc/arm-elf/4.0.2/../../../../arm-elf/lib/interwork\libstdc++.a(eh_catch.o)
                0x0209927c                . = ALIGN (0x4)

.jcr            0x0209927c        0x4
 *(.jcr)
 .jcr           0x0209927c        0x4 c:/devkitpro/devkitarm/bin/../lib/gcc/arm-elf/4.0.2/interwork/crtend.o

.got
 *(.got.plt)
 *(.got)

.ewram          0x02099280        0x0
                0x02099280                __ewram_start = <code 340> (.)
 *(.ewram)
 *ewram.*(.text)
                0x02099280                . = ALIGN (0x4)

.data           0x02099280     0x1698
                0x02099280                __data_start = <code 340> (.)
 *(.data)
 .data          0x02099280        0x8 c:/devkitpro/devkitarm/bin/../lib/gcc/arm-elf/4.0.2/interwork/crtbegin.o
                0x02099280                __dso_handle
 .data          0x02099288      0x138 dll.o
 .data          0x020993c0        0x4 ez5_language.o
                0x020993c0                gl_SaveType
                0x020993c2                gl_speed
 .data          0x020993c4      0x404 filesys.o
                0x020993c4                FileSys_PathName
 .data          0x020997c8       0x14 main.o
                0x020997c8                ExecMode
 .data          0x020997dc       0x38 memtool.o
 .data          0x02099814      0x18c mwin.o
                0x02099814                VideoOverlayHeight
                0x0209981c                ActiveWinIndex
                0x02099818                VideoOverlayWidth
 .data          0x020999a0       0x30 mwin_color.o
                0x020999a4                MWC_TextViewText
                0x020999b6                MWC_FrameBright
                0x020999b2                MWC_ClientBG
                0x020999b0                MWC_ClientText
                0x020999c6                MWC_TitleA_Text
                0x020999b8                MWC_ScrollBar
                0x020999c2                MWC_TitleD_Bright
                0x020999a2                MWC_ProgressEnd
                0x020999a8                MWC_FileSelectPlay
                0x020999a0                MWC_ProgressLast
                0x020999c0                MWC_TitleD_Dark
                0x020999a6                MWC_TextViewBG
                0x020999ae                MWC_FileSelectBG
                0x020999ce                MWC_DesktopBG
                0x020999ac                MWC_FileSelectText
                0x020999ba                MWC_TitleD_Red
                0x020999aa                MWC_FileSelectCursor
                0x020999c8                MWC_TitleA_BG
                0x020999c4                MWC_TitleA_TextShadow
                0x020999b4                MWC_FrameDark
                0x020999bc                MWC_TitleD_Text
                0x020999be                MWC_TitleD_BG
                0x020999ca                MWC_TitleA_Dark
                0x020999cc                MWC_TitleA_Bright
 .data          0x020999d0       0x14 strpcm.o
 .data          0x020999e4        0x4 cglscreenoverlay.o
 .data          0x020999e8        0x4 cglscreensub.o
 .data          0x020999ec        0x8 plug_gmegbs.o
 .data          0x020999f4        0x8 plug_gmensf.o
 .data          0x020999fc       0x18 plug_ndsrom.o
 .data          0x02099a14       0x40 md5c.o
 .data          0x02099a54        0x4 infback.o
 .data          0x02099a58        0x4 inflate.o
 .data          0x02099a5c       0x3c trees.o
 .data          0x02099a98      0x200 ../build/gba_nds_fat_2006-02-09_unicode_M3SD_ReadAlignDetect/crc.o
                0x02099a98                crc16_tbl
 .data          0x02099c98        0x4 ../build/gba_nds_fat_2006-02-09_unicode_M3SD_ReadAlignDetect/disc_io.o
                0x02099c98                DIMediaName
 .data          0x02099c9c       0x20 ../build/gba_nds_fat_2006-02-09_unicode_M3SD_ReadAlignDetect/io_DLMS.o
                0x02099c9c                io_DLMS
 .data          0x02099cbc       0x20 ../build/gba_nds_fat_2006-02-09_unicode_M3SD_ReadAlignDetect/io_ewsd.o
                0x02099cbc                io_ewsd
 .data          0x02099cdc       0x24 ../build/gba_nds_fat_2006-02-09_unicode_M3SD_ReadAlignDetect/io_ezsd.o
                0x02099cdc                io_ezsd
                0x02099cfc                flags
 .data          0x02099d00       0x24 ../build/gba_nds_fat_2006-02-09_unicode_M3SD_ReadAlignDetect/io_g6.o
                0x02099d00                io_G6_int
                0x02099d20                FlashIDTable
 .data          0x02099d24       0x20 ../build/gba_nds_fat_2006-02-09_unicode_M3SD_ReadAlignDetect/io_m3cf.o
                0x02099d24                io_m3cf
 .data          0x02099d44       0x20 ../build/gba_nds_fat_2006-02-09_unicode_M3SD_ReadAlignDetect/io_m3sd.o
                0x02099d44                io_m3sd
 .data          0x02099d64       0x20 ../build/gba_nds_fat_2006-02-09_unicode_M3SD_ReadAlignDetect/io_mmcf.o
                0x02099d64                io_mmcf
 .data          0x02099d84       0x20 ../build/gba_nds_fat_2006-02-09_unicode_M3SD_ReadAlignDetect/io_mpcf.o
                0x02099d84                io_mpcf
 .data          0x02099da4       0x20 ../build/gba_nds_fat_2006-02-09_unicode_M3SD_ReadAlignDetect/io_mpsd.o
                0x02099da4                io_mpsd
 .data          0x02099dc4       0x24 ../build/gba_nds_fat_2006-02-09_unicode_M3SD_ReadAlignDetect/io_njsd.o
                0x02099dc4                io_njsd
 .data          0x02099de8       0x28 ../build/gba_nds_fat_2006-02-09_unicode_M3SD_ReadAlignDetect/io_nmmc.o
                0x02099e08                selectMMC_command
                0x02099de8                io_nmmc
 .data          0x02099e10       0x20 ../build/gba_nds_fat_2006-02-09_unicode_M3SD_ReadAlignDetect/io_sccf.o
                0x02099e10                io_sccf
 .data          0x02099e30       0x20 ../build/gba_nds_fat_2006-02-09_unicode_M3SD_ReadAlignDetect/io_scms.o
                0x02099e30                io_scms
 .data          0x02099e50       0x20 ../build/gba_nds_fat_2006-02-09_unicode_M3SD_ReadAlignDetect/io_scsd.o
                0x02099e50                io_scsd
 .data          0x02099e70        0x4 ../build/gba_nds_fat_2006-02-09_unicode_M3SD_ReadAlignDetect/misc.o
                0x02099e70                gReadWriteDelay
 .data          0x02099e74       0x24 ../build/libmpeg2/decode.o
 .data          0x02099e98       0xe4 ../build/libmpeg2/header.o
 .data          0x02099f7c        0x4 ../build/libmpeg2/idct_clip.o
 .data          0x02099f80       0x40 ../build/libmpeg2/motion_comp.o
                0x02099f80                mpeg2_mc_c
 .data          0x02099fc0       0x10 ../build/libgme/Gbs_Emu.o
 .data          0x02099fd0       0x20 ../build/libgme/Music_Emu.o
 .data          0x02099ff0       0x10 ../build/libgme/Nes_Fme7_Apu.o
                0x02099ff0                Nes_Fme7_Apu::amp_table
 .data          0x0209a000       0x94 ../build/libgme/Nsf_Emu.o
 .data          0x0209a094       0x10 c:/devkitpro/libnds/lib\libnds9.a(gbfs.o)
 .data          0x0209a0a4        0x4 c:/devkitpro/devkitarm/bin/../lib/gcc/arm-elf/4.0.2/../../../../arm-elf/lib/interwork\libstdc++.a(eh_term_handler.o)
                0x0209a0a4                __cxxabiv1::__terminate_handler
 .data          0x0209a0a8        0x4 c:/devkitpro/devkitarm/bin/../lib/gcc/arm-elf/4.0.2/../../../../arm-elf/lib/interwork\libstdc++.a(eh_unex_handler.o)
                0x0209a0a8                __cxxabiv1::__unexpected_handler
 .data          0x0209a0ac        0x4 c:/devkitpro/devkitarm/bin/../lib/gcc/arm-elf/4.0.2/../../../../arm-elf/lib/interwork\libg.a(ctype_.o)
                0x0209a0ac                __ctype_ptr
 .data          0x0209a0b0      0x404 c:/devkitpro/devkitarm/bin/../lib/gcc/arm-elf/4.0.2/../../../../arm-elf/lib/interwork\libg.a(impure.o)
                0x0209a4b0                _impure_ptr
 .data          0x0209a4b4      0x410 c:/devkitpro/devkitarm/bin/../lib/gcc/arm-elf/4.0.2/../../../../arm-elf/lib/interwork\libg.a(mallocr.o)
                0x0209a4b4                __malloc_sbrk_base
                0x0209a4bc                __malloc_av_
                0x0209a4b8                __malloc_trim_threshold
 .data          0x0209a8c4       0x14 c:/devkitpro/devkitarm/bin/../lib/gcc/arm-elf/4.0.2/../../../../arm-elf/lib/interwork\libg.a(locale.o)
                0x0209a8d0                __mb_cur_max
                0x0209a8c4                __lc_ctype
 .data          0x0209a8d8       0x40 c:/devkitpro/devkitarm/bin/../lib/gcc/arm-elf/4.0.2/../../../../arm-elf/lib/interwork\libsysbase.a(iosupport.o)
                0x0209a8d8                devoptab_list
 *(.data.*)
 *(.gnu.linkonce.d*)
                0x0209a918                . = ALIGN (0x4)
                0x0209a918                __data_end = .
                0x0209a918                __dtcm_lma = .

.dtcm           0x00800000     0x22b0 load address 0x0209a918
                0x00800000                __dtcm_start = <code 340> (.)
 *(.dtcm)
 .dtcm          0x00800000     0x1918 clibmpg.o
 .dtcm          0x00801918      0x60c ../build/libmpeg2/decode.o
 *fill*         0x00801f24        0xc ff
 .dtcm          0x00801f30       0x80 ../build/libmpeg2/header.o
 .dtcm          0x00801fb0      0x300 ../build/libmpeg2/idct_clip.o
 *(.dtcm.*)
                0x008022b0                . = ALIGN (0x4)
                0x008022b0                __dtcm_end = .
                0x0209cbc8                __itcm_lma = (__dtcm_lma + SIZEOF (.dtcm))

.itcm           0x00000000     0x5804 load address 0x0209cbc8
                0x00000000                __itcm_start = <code 340> (.)
 *(.itcm)
 .itcm          0x00000000       0x94 main.o
                0x00000000                InterruptHandler_Vsync()
 .itcm          0x00000094      0x368 strpcm.o
                0x00000094                InterruptHandler_DMA1()
                0x00000098                InterruptHandler_VBlank()
                0x00000118                ins_MemSet16DMA2(unsigned short, void*, unsigned int)
                0x000003e8                ins_MemCopy32swi256bit(void*, void*, unsigned int)
                0x000001f4                InterruptHandler_IPC_SYNC()
                0x00000190                ins_MemCopy16DMA2(void*, void*, unsigned int)
                0x000000cc                ins_DC_FlushRangeOverrun(void*, unsigned int)
 .itcm          0x000003fc      0xac4 ../build/libmpeg2/idct_clip.o
                0x000003fc                mpeg2_idct_add_c_clip
                0x00000a24                mpeg2_idct_copy_cfast_clip
 .itcm          0x00000ec0      0xa44 ../build/libmpeg2/idct_noclip.o
                0x00000ec0                mpeg2_idct_add_c_noclip
                0x00001494                mpeg2_idct_copy_cfast_noclip
 .itcm          0x00001904     0x3e30 ../build/libmpeg2/slice.o
                0x000024e4                mpeg2_slice
 .itcm          0x00005734       0xd0 c:/devkitpro/libnds/lib\libnds9.a(interruptDispatcher.o)
                0x00005734                IntrMain
 *(.itcm.*)
                0x00005804                . = ALIGN (0x4)
                0x00005804                __itcm_end = .

.sbss           0x008022b0        0x0
                0x008022b0                __sbss_start = <code 340> (.)
                0x008022b0                __sbss_start__ = <code 340> (.)
 *(.sbss)
                0x008022b0                . = ALIGN (0x4)
                0x008022b0                __sbss_end = <code 340> (.)
                0x020a23cc                __bss_lma = (__itcm_lma + SIZEOF (.itcm))
                0x020a23cc                __appended_data = (__itcm_lma + SIZEOF (.itcm))

.bss            0x020a23cc    0x1ae30 load address 0x020a23cc
                0x020a23cc                __bss_start = <code 340> (.)
                0x020a23cc                __bss_start__ = <code 340> (.)
 *(.dynbss)
 *(.gnu.linkonce.b*)
 *(COMMON)
 COMMON         0x020a23cc     0x1728 ../build/gba_nds_fat_2006-02-09_unicode_M3SD_ReadAlignDetect/gba_nds_fat.o
                0x020a23cc                wrkDirOffset
                0x020a23d0                lfnName
                0x020a24d0                filesysNumSec
                0x020a24d4                curWorkDirCluster
                0x020a24d8                fatFirstFree
                0x020a24dc                filesysRootDir
                0x020a24e0                filesysRootDirClus
                0x020a24e4                openFiles
                0x020a36c4                fatBuffer
                0x020a38c4                wrkDirSector
                0x020a38c8                filesysFAT
                0x020a38cc                filesysSecPerFAT
                0x020a38d0                filesysTotalSize
                0x020a38d4                wrkDirCluster
                0x020a38d8                fatBufferCurSector
                0x020a38dc                globalBuffer
                0x020a3adc                fatLastCluster
                0x020a3ae0                filesysBytePerClus
                0x020a3ae4                filesysBytePerSec
                0x020a3ae8                filesysSecPerClus
                0x020a3aec                filesysData
                0x020a3af0                lfnExists
 COMMON         0x020a3af4      0x208 ../build/gba_nds_fat_2006-02-09_unicode_M3SD_ReadAlignDetect/io_ewsd.o
                0x020a3af4                response
                0x020a3cf4                argument
                0x020a3cf8                SdCardRCA
 COMMON         0x020a3cfc        0x4 ../build/gba_nds_fat_2006-02-09_unicode_M3SD_ReadAlignDetect/io_ezsd.o
                0x020a3cfc                SDadd
 COMMON         0x020a3d00     0x4006 ../build/gba_nds_fat_2006-02-09_unicode_M3SD_ReadAlignDetect/io_g6.o
                0x020a3d00                G6temp
                0x020a3d04                NandFlashID
                0x020a3d06                LookUpTable
 COMMON         0x020a7d06        0x2 ../build/gba_nds_fat_2006-02-09_unicode_M3SD_ReadAlignDetect/io_m3sd.o
                0x020a7d06                Hal4ATA_StatusByte
 COMMON         0x020a7d08        0x8 ../build/gba_nds_fat_2006-02-09_unicode_M3SD_ReadAlignDetect/io_mpsd.o
                0x020a7d08                ppp7
 COMMON         0x020a7d10        0x8 ../build/libmpeg2/idct.o
                0x020a7d10                mpeg2_idct_copy
                0x020a7d14                mpeg2_idct_add
 COMMON         0x020a7d18       0x40 ../build/libmpeg2/motion_comp.o
                0x020a7d18                mpeg2_mc
 COMMON         0x020a7d58       0xc8 c:/devkitpro/libnds/lib\libnds9.a(interrupts.o)
                0x020a7d58                irqTable
 COMMON         0x020a7e20        0x4 c:/devkitpro/devkitarm/bin/../lib/gcc/arm-elf/4.0.2/../../../../arm-elf/lib/interwork\libg.a(reent.o)
                0x020a7e20                errno
                0x020a7e24                . = ALIGN (0x4)
                0x020a7e24                __bss_end = <code 340> (.)
                0x020a7e24                __bss_end__ = <code 340> (.)
 .bss           0x020a7e24       0x1c c:/devkitpro/devkitarm/bin/../lib/gcc/arm-elf/4.0.2/interwork/crtbegin.o
 .bss           0x020a7e40       0x14 FontPro.o
 .bss           0x020a7e54        0xc _console.o
 .bss           0x020a7e60        0x8 cimfs.o
                0x020a7e64                pIMFS
                0x020a7e60                pEXFS
 .bss           0x020a7e68      0x2d8 directdisk.o
                0x020a7f68                DDFilename_bookmrk1
                0x020a7ee8                DDFilename_bookmrk2
                0x020a7fe8                DDFilename_bookmrk0
                0x020a7e68                DDFilename_bookmrk3
                0x020a8068                DDFilename_resume
 .bss           0x020a8140        0xc dll.o
                0x020a8140                DLLList
 .bss           0x020a814c       0x18 dmalink.o
                0x020a814c                DMALink
 .bss           0x020a8164        0x4 extmem.o
 .bss           0x020a8168      0x150 ez5_language.o
                0x020a8174                gl_strThanksMoonShell
                0x020a819c                gl_strSaveType
                0x020a81a4                gl_speedset
                0x020a81b0                gl_pSaveTypeBuf
                0x020a82b4                gl_speedAuto
                0x020a817c                gl_strSaveQuit
                0x020a8178                gl_strBaseMoonShell
                0x020a8184                gl_strRXMsg
                0x020a81a8                gl_SaveTypeOff
                0x020a81a0                gl_speedAutoDetect
                0x020a8180                gl_strQuit
                0x020a8170                gl_strLoadSave
                0x020a8190                gl_strBMsg
                0x020a82b5                gl_language
                0x020a8188                gl_strLXMsg
                0x020a81b4                pSaveFileName
                0x020a818c                gl_strLRMsg
                0x020a8194                gl_strAMsg
                0x020a8198                gl_strAboutMsg
                0x020a81ac                gl_SizeTypeFileSize
                0x020a8168                gl_strLoadGame
                0x020a816c                gl_strBackSave
 .bss           0x020a82b8      0x204 filesys.o
                0x020a82c8                CurrentVolumeType
                0x020a82c4                gbfsfile
                0x020a82b8                FileSys_InitInterface_ErrorStr
                0x020a82cc                FileSys_VolumeType
                0x020a82bc                FileCount
                0x020a82c0                pFile
 .bss           0x020a84bc       0x28 formdt.o
 .bss           0x020a84e4      0x10c imgcalc.o
 .bss           0x020a85f0      0x30c inifile.o
                0x020a85f0                GlobalINI
 .bss           0x020a88fc      0x480 main.o
                0x020a8904                SetARM9_REG_ROM1stAccessCycleControl
                0x020a8a0a                forResume_PlayFileAliasName
                0x020a88fc                KEYS_CUR
                0x020a8908                forResume_PlayFileUnicodeName
                0x020a8ab0                pPluginBody
                0x020a8aac                reqflip
                0x020a8a18                forResume_PlayPathName
                0x020a8ab4                NDSLite_Brightness
                0x020a8900                SetARM9_REG_ROM2stAccessCycleControl
                0x020a8a9c                ImageRect
 .bss           0x020a8d7c        0x4 memtool.o
 .bss           0x020a8d80     0x10dc mwin.o
                0x020a8d93                HoldCloseButton
                0x020a8d92                HoldSBarV
                0x020a8d90                HoldClient
                0x020a8d84                MWin_ProgressPosition
                0x020a8d9c                mlx
                0x020a8d91                HoldSBarH
                0x020a8da4                mcx
                0x020a8d98                mly
                0x020a8d88                MWin_ProgressMax
                0x020a8da8                RequestFileCloseFromMWin
                0x020a8d80                VideoOverlayRatio
                0x020a8d8c                MWin_ProgressActiveWinIndex
                0x020a8d94                HoldTitleBar
                0x020a8da0                mcy
                0x020a8dac                SkinBM
 .bss           0x020a9e5c      0x2d4 resume.o
 .bss           0x020aa130      0x210 shell.o
                0x020aa130                FATShellPluginPath
                0x020aa334                Shell_VolumeType
                0x020aa231                FATShellPath
 .bss           0x020aa340       0x1c strpcm.o
                0x020aa351                strpcmRequestStop
                0x020aa348                strpcmRingBufWriteIndex
                0x020aa340                strpcmRingRBuf
                0x020aa344                strpcmRingLBuf
                0x020aa34c                strpcmRingBufReadIndex
                0x020aa350                strpcmRingEmptyFlag
                0x020aa352                VsyncPassedCount
 .bss           0x020aa35c       0x10 thumb.o
 .bss           0x020aa36c       0x1c unicode.o
                0x020aa370                Local2UnicodeTable
                0x020aa37c                DefaultCodePage
                0x020aa378                isAnkTable
                0x020aa36c                isUTF8
                0x020aa374                Local2UnicodeTableSize
 .bss           0x020aa388        0x8 cglcanvas.o
 .bss           0x020aa390      0x400 cglscreenoverlay.o
 .bss           0x020aa790      0x400 cglscreensub.o
 .bss           0x020aab90       0x10 glglobal.o
                0x020aab98                pScreenMain
                0x020aab94                pScreenMainOverlay
                0x020aab90                pScreenSub
 .bss           0x020aaba0       0x1c clibmpg.o
 .bss           0x020aabbc       0x14 plug_dpg.o
                0x020aabbc                DPG_RequestSyncStart
 .bss           0x020aabd0        0x4 plug_fpk.o
 .bss           0x020aabd4       0x9c plug_gmegbs.o
 .bss           0x020aac70       0x64 plug_gmensf.o
 .bss           0x020aacd4       0x38 plug_gsm.o
 .bss           0x020aad0c       0x18 plug_mp2.o
 .bss           0x020aad24       0x1c plug_text.o
 .bss           0x020aad40        0xc plug_text_bookmark.o
                0x020aad44                BookmarkCount
                0x020aad40                pBookmark
 .bss           0x020aad4c      0x88c infback.o
 .bss           0x020ab5d8      0x88c inflate.o
 .bss           0x020abe64        0x8 ../build/gba_nds_fat_2006-02-09_unicode_M3SD_ReadAlignDetect/disc_io.o
                0x020abe64                DIMediaType
                0x020abe68                active_interface
 .bss           0x020abe6c    0x10204 ../build/gba_nds_fat_2006-02-09_unicode_M3SD_ReadAlignDetect/gba_nds_fat.o
                0x020abe6c                filesysType
 .bss           0x020bc070        0x4 ../build/gba_nds_fat_2006-02-09_unicode_M3SD_ReadAlignDetect/io_ezsd.o
                0x020bc070                status
 .bss           0x020bc074        0x4 ../build/gba_nds_fat_2006-02-09_unicode_M3SD_ReadAlignDetect/io_m3sd.o
 .bss           0x020bc078        0x8 ../build/gba_nds_fat_2006-02-09_unicode_M3SD_ReadAlignDetect/io_njsd.o
 .bss           0x020bc080        0x8 ../build/libmpeg2/alloc.o
 .bss           0x020bc088        0x4 ../build/libgme/Gb_Apu.o
 .bss           0x020bc08c      0x100 ../build/libgme/Gbs_Emu.o
 .bss           0x020bc18c        0x4 ../build/libgme/Nes_Apu.o
 .bss           0x020bc190      0x800 ../build/libgme/Nsf_Emu.o
 .bss           0x020bc990        0x8 c:/devkitpro/libnds/lib\libnds9.a(keys.o)
 .bss           0x020bc998        0x1 c:/devkitpro/devkitarm/bin/../lib/gcc/arm-elf/4.0.2/../../../../arm-elf/lib/interwork\libstdc++.a(vterminate.o)
 *fill*         0x020bc999        0x3 00
 .bss           0x020bc99c      0x804 c:/devkitpro/devkitarm/bin/../lib/gcc/arm-elf/4.0.2/../../../../arm-elf/lib/interwork\libstdc++.a(eh_alloc.o)
 .bss           0x020bd1a0        0x8 c:/devkitpro/devkitarm/bin/../lib/gcc/arm-elf/4.0.2/../../../../arm-elf/lib/interwork\libstdc++.a(eh_globals.o)
 .bss           0x020bd1a8        0x4 c:/devkitpro/devkitarm/bin/../lib/gcc/arm-elf/4.0.2/../../../../arm-elf/lib/interwork\libstdc++.a(new_handler.o)
                0x020bd1a8                __new_handler
 .bss           0x020bd1ac        0x4 c:/devkitpro/devkitarm/bin/../lib/gcc/arm-elf/4.0.2/interwork\libgcc.a(unwind-sjlj.o)
 .bss           0x020bd1b0       0x34 c:/devkitpro/devkitarm/bin/../lib/gcc/arm-elf/4.0.2/../../../../arm-elf/lib/interwork\libg.a(mallocr.o)
                0x020bd1e0                __malloc_top_pad
                0x020bd1dc                __malloc_max_sbrked_mem
                0x020bd1b0                __malloc_current_mallinfo
                0x020bd1d8                __malloc_max_total_mem
 .bss           0x020bd1e4        0xc c:/devkitpro/devkitarm/bin/../lib/gcc/arm-elf/4.0.2/../../../../arm-elf/lib/interwork\libg.a(locale.o)
                0x020bd1ec                __nlocale_changed
                0x020bd1e8                __mlocale_changed
                0x020bd1e4                _PathLocale
 .bss           0x020bd1f0        0x4 c:/devkitpro/devkitarm/bin/../lib/gcc/arm-elf/4.0.2/../../../../arm-elf/lib/interwork\libsysbase.a(sbrk.o)
 .bss           0x020bd1f4        0x8 c:/devkitpro/devkitarm/bin/../lib/gcc/arm-elf/4.0.2/../../../../arm-elf/lib/interwork\libsysbase.a(malloc_vars.o)
                0x020bd1f4                fake_heap_start
                0x020bd1f8                fake_heap_end
                0x020bd1fc                _end = .
                0x020bd1fc                __end__ = .
                0x020bd1fc                PROVIDE (end, _end)

.stab
 *(.stab)

.stabstr
 *(.stabstr)

.stab.excl
 *(.stab.excl)

.stab.exclstr
 *(.stab.exclstr)

.stab.index
 *(.stab.index)

.stab.indexstr
 *(.stab.indexstr)

.comment        0x00000000     0x12d8
 *(.comment)
 .comment       0x00000000       0x12 c:/devkitpro/devkitarm/bin/../lib/gcc/arm-elf/4.0.2/interwork/crtbegin.o
 .comment       0x00000012       0x12 FontPro.o
 .comment       0x00000024       0x12 VRAMTool.o
 .comment       0x00000036       0x12 _console.o
 .comment       0x00000048       0x12 _consoleWriteLog.o
 .comment       0x0000005a       0x12 cardsaver.o
 .comment       0x0000006c       0x12 cimfs.o
 .comment       0x0000007e       0x12 cstream.o
 .comment       0x00000090       0x12 cstream_fs.o
 .comment       0x000000a2       0x12 directdisk.o
 .comment       0x000000b4       0x12 dll.o
 .comment       0x000000c6       0x12 dmalink.o
 .comment       0x000000d8       0x12 dsCard.o
 .comment       0x000000ea       0x12 extmem.o
 .comment       0x000000fc       0x12 ez5_language.o
 .comment       0x0000010e       0x12 filesys.o
 .comment       0x00000120       0x12 formdt.o
 .comment       0x00000132       0x12 imgcalc.o
 .comment       0x00000144       0x12 inifile.o
 .comment       0x00000156       0x12 main.o
 .comment       0x00000168       0x12 memtool.o
 .comment       0x0000017a       0x12 mwin.o
 .comment       0x0000018c       0x12 mwin_color.o
 .comment       0x0000019e       0x12 resume.o
 .comment       0x000001b0       0x12 shell.o
 .comment       0x000001c2       0x12 strpcm.o
 .comment       0x000001d4       0x12 strtool.o
 .comment       0x000001e6       0x12 thumb.o
 .comment       0x000001f8       0x12 unicode.o
 .comment       0x0000020a       0x12 zlibhelp.o
 .comment       0x0000021c       0x12 cglb15.o
 .comment       0x0000022e       0x12 cglcanvas.o
 .comment       0x00000240       0x12 cglfont.o
 .comment       0x00000252       0x12 cglscreenmain.o
 .comment       0x00000264       0x12 cglscreenoverlay.o
 .comment       0x00000276       0x12 cglscreensub.o
 .comment       0x00000288       0x12 cglstream.o
 .comment       0x0000029a       0x12 cgltgf.o
 .comment       0x000002ac       0x12 cglunicode.o
 .comment       0x000002be       0x12 glglobal.o
 .comment       0x000002d0       0x12 glmemtool.o
 .comment       0x000002e2       0x12 clibdpg.o
 .comment       0x000002f4       0x12 clibmpg.o
 .comment       0x00000306       0x12 plug_dpg.o
 .comment       0x00000318       0x12 plug_fpk.o
 .comment       0x0000032a       0x12 plug_gmegbs.o
 .comment       0x0000033c       0x12 plug_gmensf.o
 .comment       0x0000034e       0x12 plug_gsm.o
 .comment       0x00000360       0x12 plug_mp2.o
 .comment       0x00000372       0x12 plug_ndsrom.o
 .comment       0x00000384       0x12 plug_text.o
 .comment       0x00000396       0x12 plug_text_bookmark.o
 .comment       0x000003a8       0x12 md5c.o
 .comment       0x000003ba       0x12 adler32.o
 .comment       0x000003cc       0x12 crc32.o
 .comment       0x000003de       0x12 deflate.o
 .comment       0x000003f0       0x12 infback.o
 .comment       0x00000402       0x12 inffast.o
 .comment       0x00000414       0x12 inflate.o
 .comment       0x00000426       0x12 inftrees.o
 .comment       0x00000438       0x12 trees.o
 .comment       0x0000044a       0x12 zutil.o
 .comment       0x0000045c       0x12 ../build/gba_nds_fat_2006-02-09_unicode_M3SD_ReadAlignDetect/crc.o
 .comment       0x0000046e       0x12 ../build/gba_nds_fat_2006-02-09_unicode_M3SD_ReadAlignDetect/disc_io.o
 .comment       0x00000480       0x12 ../build/gba_nds_fat_2006-02-09_unicode_M3SD_ReadAlignDetect/gba_nds_fat.o
 .comment       0x00000492       0x12 ../build/gba_nds_fat_2006-02-09_unicode_M3SD_ReadAlignDetect/io_DLMS.o
 .comment       0x000004a4       0x12 ../build/gba_nds_fat_2006-02-09_unicode_M3SD_ReadAlignDetect/io_ewsd.o
 .comment       0x000004b6       0x12 ../build/gba_nds_fat_2006-02-09_unicode_M3SD_ReadAlignDetect/io_ezsd.o
 .comment       0x000004c8       0x12 ../build/gba_nds_fat_2006-02-09_unicode_M3SD_ReadAlignDetect/io_fcsr.o
 .comment       0x000004da       0x12 ../build/gba_nds_fat_2006-02-09_unicode_M3SD_ReadAlignDetect/io_g6.o
 .comment       0x000004ec       0x12 ../build/gba_nds_fat_2006-02-09_unicode_M3SD_ReadAlignDetect/io_m3cf.o
 .comment       0x000004fe       0x12 ../build/gba_nds_fat_2006-02-09_unicode_M3SD_ReadAlignDetect/io_m3sd.o
 .comment       0x00000510       0x12 ../build/gba_nds_fat_2006-02-09_unicode_M3SD_ReadAlignDetect/io_mmcf.o
 .comment       0x00000522       0x12 ../build/gba_nds_fat_2006-02-09_unicode_M3SD_ReadAlignDetect/io_mpcf.o
 .comment       0x00000534       0x12 ../build/gba_nds_fat_2006-02-09_unicode_M3SD_ReadAlignDetect/io_mpsd.o
 .comment       0x00000546       0x12 ../build/gba_nds_fat_2006-02-09_unicode_M3SD_ReadAlignDetect/io_njsd.o
 .comment       0x00000558       0x12 ../build/gba_nds_fat_2006-02-09_unicode_M3SD_ReadAlignDetect/io_njsd_common.o
 .comment       0x0000056a       0x12 ../build/gba_nds_fat_2006-02-09_unicode_M3SD_ReadAlignDetect/io_nmmc.o
 .comment       0x0000057c       0x12 ../build/gba_nds_fat_2006-02-09_unicode_M3SD_ReadAlignDetect/io_sccf.o
 .comment       0x0000058e       0x12 ../build/gba_nds_fat_2006-02-09_unicode_M3SD_ReadAlignDetect/io_scms.o
 .comment       0x000005a0       0x12 ../build/gba_nds_fat_2006-02-09_unicode_M3SD_ReadAlignDetect/io_scsd.o
 .comment       0x000005b2       0x12 ../build/gba_nds_fat_2006-02-09_unicode_M3SD_ReadAlignDetect/misc.o
 .comment       0x000005c4       0x12 ../build/gba_nds_fat_2006-02-09_unicode_M3SD_ReadAlignDetect/sdbasic.o
 .comment       0x000005d6       0x12 ../build/libmpeg2/alloc.o
 .comment       0x000005e8       0x12 ../build/libmpeg2/cpu_accel.o
 .comment       0x000005fa       0x12 ../build/libmpeg2/cpu_state.o
 .comment       0x0000060c       0x12 ../build/libmpeg2/decode.o
 .comment       0x0000061e       0x12 ../build/libmpeg2/header.o
 .comment       0x00000630       0x12 ../build/libmpeg2/idct.o
 .comment       0x00000642       0x12 ../build/libmpeg2/idct_clip.o
 .comment       0x00000654       0x12 ../build/libmpeg2/idct_noclip.o
 .comment       0x00000666       0x12 ../build/libmpeg2/motion_comp.o
 .comment       0x00000678       0x12 ../build/libmpeg2/slice.o
 .comment       0x0000068a       0x12 ../build/libgme/Blip_Buffer.o
 .comment       0x0000069c       0x12 ../build/libgme/Classic_Emu.o
 .comment       0x000006ae       0x12 ../build/libgme/Dual_Resampler.o
 .comment       0x000006c0       0x12 ../build/libgme/Effects_Buffer.o
 .comment       0x000006d2       0x12 ../build/libgme/Fir_Resampler.o
 .comment       0x000006e4       0x12 ../build/libgme/Gb_Apu.o
 .comment       0x000006f6       0x12 ../build/libgme/Gb_Cpu.o
 .comment       0x00000708       0x12 ../build/libgme/Gb_Oscs.o
 .comment       0x0000071a       0x12 ../build/libgme/Gbs_Emu.o
 .comment       0x0000072c       0x12 ../build/libgme/Multi_Buffer.o
 .comment       0x0000073e       0x12 ../build/libgme/Music_Emu.o
 .comment       0x00000750       0x12 ../build/libgme/Nes_Apu.o
 .comment       0x00000762       0x12 ../build/libgme/Nes_Cpu.o
 .comment       0x00000774       0x12 ../build/libgme/Nes_Fme7_Apu.o
 .comment       0x00000786       0x12 ../build/libgme/Nes_Namco_Apu.o
 .comment       0x00000798       0x12 ../build/libgme/Nes_Oscs.o
 .comment       0x000007aa       0x12 ../build/libgme/Nes_Vrc6_Apu.o
 .comment       0x000007bc       0x12 ../build/libgme/Nsf_Emu.o
 .comment       0x000007ce       0x12 ../build/libgme/abstract_file.o
 .comment       0x000007e0       0x12 c:/devkitpro/libnds/lib\libnds9.a(keys.o)
 .comment       0x000007f2       0x12 c:/devkitpro/libnds/lib\libnds9.a(video.o)
 .comment       0x00000804       0x12 c:/devkitpro/libnds/lib\libnds9.a(card.o)
 .comment       0x00000816       0x12 c:/devkitpro/libnds/lib\libnds9.a(gbfs.o)
 .comment       0x00000828       0x12 c:/devkitpro/libnds/lib\libnds9.a(interrupts.o)
 .comment       0x0000083a       0x12 c:/devkitpro/devkitarm/bin/../lib/gcc/arm-elf/4.0.2/../../../../arm-elf/lib/interwork\libstdc++.a(del_op.o)
 .comment       0x0000084c       0x12 c:/devkitpro/devkitarm/bin/../lib/gcc/arm-elf/4.0.2/../../../../arm-elf/lib/interwork\libstdc++.a(del_opv.o)
 .comment       0x0000085e       0x12 c:/devkitpro/devkitarm/bin/../lib/gcc/arm-elf/4.0.2/../../../../arm-elf/lib/interwork\libstdc++.a(eh_personality.o)
 .comment       0x00000870       0x12 c:/devkitpro/devkitarm/bin/../lib/gcc/arm-elf/4.0.2/../../../../arm-elf/lib/interwork\libstdc++.a(eh_terminate.o)
 .comment       0x00000882       0x12 c:/devkitpro/devkitarm/bin/../lib/gcc/arm-elf/4.0.2/../../../../arm-elf/lib/interwork\libstdc++.a(eh_term_handler.o)
 .comment       0x00000894       0x12 c:/devkitpro/devkitarm/bin/../lib/gcc/arm-elf/4.0.2/../../../../arm-elf/lib/interwork\libstdc++.a(eh_throw.o)
 .comment       0x000008a6       0x12 c:/devkitpro/devkitarm/bin/../lib/gcc/arm-elf/4.0.2/../../../../arm-elf/lib/interwork\libstdc++.a(eh_unex_handler.o)
 .comment       0x000008b8       0x12 c:/devkitpro/devkitarm/bin/../lib/gcc/arm-elf/4.0.2/../../../../arm-elf/lib/interwork\libstdc++.a(new_op.o)
 .comment       0x000008ca       0x12 c:/devkitpro/devkitarm/bin/../lib/gcc/arm-elf/4.0.2/../../../../arm-elf/lib/interwork\libstdc++.a(new_opv.o)
 .comment       0x000008dc       0x12 c:/devkitpro/devkitarm/bin/../lib/gcc/arm-elf/4.0.2/../../../../arm-elf/lib/interwork\libstdc++.a(pure.o)
 .comment       0x000008ee       0x12 c:/devkitpro/devkitarm/bin/../lib/gcc/arm-elf/4.0.2/../../../../arm-elf/lib/interwork\libstdc++.a(tinfo.o)
 .comment       0x00000900       0x12 c:/devkitpro/devkitarm/bin/../lib/gcc/arm-elf/4.0.2/../../../../arm-elf/lib/interwork\libstdc++.a(vterminate.o)
 .comment       0x00000912       0x12 c:/devkitpro/devkitarm/bin/../lib/gcc/arm-elf/4.0.2/../../../../arm-elf/lib/interwork\libstdc++.a(cp-demangle.o)
 .comment       0x00000924       0x12 c:/devkitpro/devkitarm/bin/../lib/gcc/arm-elf/4.0.2/../../../../arm-elf/lib/interwork\libstdc++.a(eh_alloc.o)
 .comment       0x00000936       0x12 c:/devkitpro/devkitarm/bin/../lib/gcc/arm-elf/4.0.2/../../../../arm-elf/lib/interwork\libstdc++.a(eh_catch.o)
 .comment       0x00000948       0x12 c:/devkitpro/devkitarm/bin/../lib/gcc/arm-elf/4.0.2/../../../../arm-elf/lib/interwork\libstdc++.a(eh_exception.o)
 .comment       0x0000095a       0x12 c:/devkitpro/devkitarm/bin/../lib/gcc/arm-elf/4.0.2/../../../../arm-elf/lib/interwork\libstdc++.a(eh_globals.o)
 .comment       0x0000096c       0x12 c:/devkitpro/devkitarm/bin/../lib/gcc/arm-elf/4.0.2/../../../../arm-elf/lib/interwork\libstdc++.a(eh_type.o)
 .comment       0x0000097e       0x12 c:/devkitpro/devkitarm/bin/../lib/gcc/arm-elf/4.0.2/../../../../arm-elf/lib/interwork\libstdc++.a(new_handler.o)
 .comment       0x00000990       0x12 c:/devkitpro/devkitarm/bin/../lib/gcc/arm-elf/4.0.2/../../../../arm-elf/lib/interwork\libm.a(s_cos.o)
 .comment       0x000009a2       0x12 c:/devkitpro/devkitarm/bin/../lib/gcc/arm-elf/4.0.2/../../../../arm-elf/lib/interwork\libm.a(s_fabs.o)
 .comment       0x000009b4       0x12 c:/devkitpro/devkitarm/bin/../lib/gcc/arm-elf/4.0.2/../../../../arm-elf/lib/interwork\libm.a(s_floor.o)
 .comment       0x000009c6       0x12 c:/devkitpro/devkitarm/bin/../lib/gcc/arm-elf/4.0.2/../../../../arm-elf/lib/interwork\libm.a(sf_fabs.o)
 .comment       0x000009d8       0x12 c:/devkitpro/devkitarm/bin/../lib/gcc/arm-elf/4.0.2/../../../../arm-elf/lib/interwork\libm.a(w_fmod.o)
 .comment       0x000009ea       0x12 c:/devkitpro/devkitarm/bin/../lib/gcc/arm-elf/4.0.2/../../../../arm-elf/lib/interwork\libm.a(w_pow.o)
 .comment       0x000009fc       0x12 c:/devkitpro/devkitarm/bin/../lib/gcc/arm-elf/4.0.2/../../../../arm-elf/lib/interwork\libm.a(e_fmod.o)
 .comment       0x00000a0e       0x12 c:/devkitpro/devkitarm/bin/../lib/gcc/arm-elf/4.0.2/../../../../arm-elf/lib/interwork\libm.a(e_pow.o)
 .comment       0x00000a20       0x12 c:/devkitpro/devkitarm/bin/../lib/gcc/arm-elf/4.0.2/../../../../arm-elf/lib/interwork\libm.a(e_rem_pio2.o)
 .comment       0x00000a32       0x12 c:/devkitpro/devkitarm/bin/../lib/gcc/arm-elf/4.0.2/../../../../arm-elf/lib/interwork\libm.a(e_sqrt.o)
 .comment       0x00000a44       0x12 c:/devkitpro/devkitarm/bin/../lib/gcc/arm-elf/4.0.2/../../../../arm-elf/lib/interwork\libm.a(k_cos.o)
 .comment       0x00000a56       0x12 c:/devkitpro/devkitarm/bin/../lib/gcc/arm-elf/4.0.2/../../../../arm-elf/lib/interwork\libm.a(k_rem_pio2.o)
 .comment       0x00000a68       0x12 c:/devkitpro/devkitarm/bin/../lib/gcc/arm-elf/4.0.2/../../../../arm-elf/lib/interwork\libm.a(k_sin.o)
 .comment       0x00000a7a       0x12 c:/devkitpro/devkitarm/bin/../lib/gcc/arm-elf/4.0.2/../../../../arm-elf/lib/interwork\libm.a(s_finite.o)
 .comment       0x00000a8c       0x12 c:/devkitpro/devkitarm/bin/../lib/gcc/arm-elf/4.0.2/../../../../arm-elf/lib/interwork\libm.a(s_infconst.o)
 .comment       0x00000a9e       0x12 c:/devkitpro/devkitarm/bin/../lib/gcc/arm-elf/4.0.2/../../../../arm-elf/lib/interwork\libm.a(s_isnan.o)
 .comment       0x00000ab0       0x12 c:/devkitpro/devkitarm/bin/../lib/gcc/arm-elf/4.0.2/../../../../arm-elf/lib/interwork\libm.a(s_lib_ver.o)
 .comment       0x00000ac2       0x12 c:/devkitpro/devkitarm/bin/../lib/gcc/arm-elf/4.0.2/../../../../arm-elf/lib/interwork\libm.a(s_matherr.o)
 .comment       0x00000ad4       0x12 c:/devkitpro/devkitarm/bin/../lib/gcc/arm-elf/4.0.2/../../../../arm-elf/lib/interwork\libm.a(s_rint.o)
 .comment       0x00000ae6       0x12 c:/devkitpro/devkitarm/bin/../lib/gcc/arm-elf/4.0.2/../../../../arm-elf/lib/interwork\libm.a(s_scalbn.o)
 .comment       0x00000af8       0x12 c:/devkitpro/devkitarm/bin/../lib/gcc/arm-elf/4.0.2/../../../../arm-elf/lib/interwork\libm.a(s_copysign.o)
 .comment       0x00000b0a       0x12 c:/devkitpro/devkitarm/bin/../lib/gcc/arm-elf/4.0.2/interwork\libgcc.a(_divdi3.o)
 .comment       0x00000b1c       0x12 c:/devkitpro/devkitarm/bin/../lib/gcc/arm-elf/4.0.2/interwork\libgcc.a(_udivdi3.o)
 .comment       0x00000b2e       0x12 c:/devkitpro/devkitarm/bin/../lib/gcc/arm-elf/4.0.2/interwork\libgcc.a(unwind-sjlj.o)
 .comment       0x00000b40       0x12 c:/devkitpro/devkitarm/bin/../lib/gcc/arm-elf/4.0.2/interwork\libgcc.a(_clz.o)
 .comment       0x00000b52       0x12 c:/devkitpro/devkitarm/bin/../lib/gcc/arm-elf/4.0.2/../../../../arm-elf/lib/interwork\libg.a(abs.o)
 .comment       0x00000b64       0x12 c:/devkitpro/devkitarm/bin/../lib/gcc/arm-elf/4.0.2/../../../../arm-elf/lib/interwork\libg.a(assert.o)
 .comment       0x00000b76       0x12 c:/devkitpro/devkitarm/bin/../lib/gcc/arm-elf/4.0.2/../../../../arm-elf/lib/interwork\libg.a(atof.o)
 .comment       0x00000b88       0x12 c:/devkitpro/devkitarm/bin/../lib/gcc/arm-elf/4.0.2/../../../../arm-elf/lib/interwork\libg.a(atoi.o)
 .comment       0x00000b9a       0x12 c:/devkitpro/devkitarm/bin/../lib/gcc/arm-elf/4.0.2/../../../../arm-elf/lib/interwork\libg.a(atol.o)
 .comment       0x00000bac       0x12 c:/devkitpro/devkitarm/bin/../lib/gcc/arm-elf/4.0.2/../../../../arm-elf/lib/interwork\libg.a(atoll.o)
 .comment       0x00000bbe       0x12 c:/devkitpro/devkitarm/bin/../lib/gcc/arm-elf/4.0.2/../../../../arm-elf/lib/interwork\libg.a(bsearch.o)
 .comment       0x00000bd0       0x12 c:/devkitpro/devkitarm/bin/../lib/gcc/arm-elf/4.0.2/../../../../arm-elf/lib/interwork\libg.a(calloc.o)
 .comment       0x00000be2       0x12 c:/devkitpro/devkitarm/bin/../lib/gcc/arm-elf/4.0.2/../../../../arm-elf/lib/interwork\libg.a(callocr.o)
 .comment       0x00000bf4       0x12 c:/devkitpro/devkitarm/bin/../lib/gcc/arm-elf/4.0.2/../../../../arm-elf/lib/interwork\libg.a(ctype_.o)
 .comment       0x00000c06       0x12 c:/devkitpro/devkitarm/bin/../lib/gcc/arm-elf/4.0.2/../../../../arm-elf/lib/interwork\libg.a(errno.o)
 .comment       0x00000c18       0x12 c:/devkitpro/devkitarm/bin/../lib/gcc/arm-elf/4.0.2/../../../../arm-elf/lib/interwork\libg.a(fclose.o)
 .comment       0x00000c2a       0x12 c:/devkitpro/devkitarm/bin/../lib/gcc/arm-elf/4.0.2/../../../../arm-elf/lib/interwork\libg.a(fflush.o)
 .comment       0x00000c3c       0x12 c:/devkitpro/devkitarm/bin/../lib/gcc/arm-elf/4.0.2/../../../../arm-elf/lib/interwork\libg.a(findfp.o)
 .comment       0x00000c4e       0x12 c:/devkitpro/devkitarm/bin/../lib/gcc/arm-elf/4.0.2/../../../../arm-elf/lib/interwork\libg.a(fiprintf.o)
 .comment       0x00000c60       0x12 c:/devkitpro/devkitarm/bin/../lib/gcc/arm-elf/4.0.2/../../../../arm-elf/lib/interwork\libg.a(fopen.o)
 .comment       0x00000c72       0x12 c:/devkitpro/devkitarm/bin/../lib/gcc/arm-elf/4.0.2/../../../../arm-elf/lib/interwork\libg.a(fputc.o)
 .comment       0x00000c84       0x12 c:/devkitpro/devkitarm/bin/../lib/gcc/arm-elf/4.0.2/../../../../arm-elf/lib/interwork\libg.a(fputs.o)
 .comment       0x00000c96       0x12 c:/devkitpro/devkitarm/bin/../lib/gcc/arm-elf/4.0.2/../../../../arm-elf/lib/interwork\libg.a(fread.o)
 .comment       0x00000ca8       0x12 c:/devkitpro/devkitarm/bin/../lib/gcc/arm-elf/4.0.2/../../../../arm-elf/lib/interwork\libg.a(freer.o)
 .comment       0x00000cba       0x12 c:/devkitpro/devkitarm/bin/../lib/gcc/arm-elf/4.0.2/../../../../arm-elf/lib/interwork\libg.a(fseek.o)
 .comment       0x00000ccc       0x12 c:/devkitpro/devkitarm/bin/../lib/gcc/arm-elf/4.0.2/../../../../arm-elf/lib/interwork\libg.a(fstatr.o)
 .comment       0x00000cde       0x12 c:/devkitpro/devkitarm/bin/../lib/gcc/arm-elf/4.0.2/../../../../arm-elf/lib/interwork\libg.a(ftell.o)
 .comment       0x00000cf0       0x12 c:/devkitpro/devkitarm/bin/../lib/gcc/arm-elf/4.0.2/../../../../arm-elf/lib/interwork\libg.a(fvwrite.o)
 .comment       0x00000d02       0x12 c:/devkitpro/devkitarm/bin/../lib/gcc/arm-elf/4.0.2/../../../../arm-elf/lib/interwork\libg.a(fwalk.o)
 .comment       0x00000d14       0x12 c:/devkitpro/devkitarm/bin/../lib/gcc/arm-elf/4.0.2/../../../../arm-elf/lib/interwork\libg.a(fwrite.o)
 .comment       0x00000d26       0x12 c:/devkitpro/devkitarm/bin/../lib/gcc/arm-elf/4.0.2/../../../../arm-elf/lib/interwork\libg.a(impure.o)
 .comment       0x00000d38       0x12 c:/devkitpro/devkitarm/bin/../lib/gcc/arm-elf/4.0.2/../../../../arm-elf/lib/interwork\libg.a(labs.o)
 .comment       0x00000d4a       0x12 c:/devkitpro/devkitarm/bin/../lib/gcc/arm-elf/4.0.2/../../../../arm-elf/lib/interwork\libg.a(llabs.o)
 .comment       0x00000d5c       0x12 c:/devkitpro/devkitarm/bin/../lib/gcc/arm-elf/4.0.2/../../../../arm-elf/lib/interwork\libg.a(makebuf.o)
 .comment       0x00000d6e       0x12 c:/devkitpro/devkitarm/bin/../lib/gcc/arm-elf/4.0.2/../../../../arm-elf/lib/interwork\libg.a(malloc.o)
 .comment       0x00000d80       0x12 c:/devkitpro/devkitarm/bin/../lib/gcc/arm-elf/4.0.2/../../../../arm-elf/lib/interwork\libg.a(mallocr.o)
 .comment       0x00000d92       0x12 c:/devkitpro/devkitarm/bin/../lib/gcc/arm-elf/4.0.2/../../../../arm-elf/lib/interwork\libg.a(memchr.o)
 .comment       0x00000da4       0x12 c:/devkitpro/devkitarm/bin/../lib/gcc/arm-elf/4.0.2/../../../../arm-elf/lib/interwork\libg.a(memcmp.o)
 .comment       0x00000db6       0x12 c:/devkitpro/devkitarm/bin/../lib/gcc/arm-elf/4.0.2/../../../../arm-elf/lib/interwork\libg.a(memcpy.o)
 .comment       0x00000dc8       0x12 c:/devkitpro/devkitarm/bin/../lib/gcc/arm-elf/4.0.2/../../../../arm-elf/lib/interwork\libg.a(memmove.o)
 .comment       0x00000dda       0x12 c:/devkitpro/devkitarm/bin/../lib/gcc/arm-elf/4.0.2/../../../../arm-elf/lib/interwork\libg.a(memset.o)
 .comment       0x00000dec       0x12 c:/devkitpro/devkitarm/bin/../lib/gcc/arm-elf/4.0.2/../../../../arm-elf/lib/interwork\libg.a(mlock.o)
 .comment       0x00000dfe       0x12 c:/devkitpro/devkitarm/bin/../lib/gcc/arm-elf/4.0.2/../../../../arm-elf/lib/interwork\libg.a(openr.o)
 .comment       0x00000e10       0x12 c:/devkitpro/devkitarm/bin/../lib/gcc/arm-elf/4.0.2/../../../../arm-elf/lib/interwork\libg.a(printf.o)
 .comment       0x00000e22       0x12 c:/devkitpro/devkitarm/bin/../lib/gcc/arm-elf/4.0.2/../../../../arm-elf/lib/interwork\libg.a(rand.o)
 .comment       0x00000e34       0x12 c:/devkitpro/devkitarm/bin/../lib/gcc/arm-elf/4.0.2/../../../../arm-elf/lib/interwork\libg.a(realloc.o)
 .comment       0x00000e46       0x12 c:/devkitpro/devkitarm/bin/../lib/gcc/arm-elf/4.0.2/../../../../arm-elf/lib/interwork\libg.a(reallocr.o)
 .comment       0x00000e58       0x12 c:/devkitpro/devkitarm/bin/../lib/gcc/arm-elf/4.0.2/../../../../arm-elf/lib/interwork\libg.a(reent.o)
 .comment       0x00000e6a       0x12 c:/devkitpro/devkitarm/bin/../lib/gcc/arm-elf/4.0.2/../../../../arm-elf/lib/interwork\libg.a(refill.o)
 .comment       0x00000e7c       0x12 c:/devkitpro/devkitarm/bin/../lib/gcc/arm-elf/4.0.2/../../../../arm-elf/lib/interwork\libg.a(sbrkr.o)
 .comment       0x00000e8e       0x12 c:/devkitpro/devkitarm/bin/../lib/gcc/arm-elf/4.0.2/../../../../arm-elf/lib/interwork\libg.a(snprintf.o)
 .comment       0x00000ea0       0x12 c:/devkitpro/devkitarm/bin/../lib/gcc/arm-elf/4.0.2/../../../../arm-elf/lib/interwork\libg.a(sprintf.o)
 .comment       0x00000eb2       0x12 c:/devkitpro/devkitarm/bin/../lib/gcc/arm-elf/4.0.2/../../../../arm-elf/lib/interwork\libg.a(stdio.o)
 .comment       0x00000ec4       0x12 c:/devkitpro/devkitarm/bin/../lib/gcc/arm-elf/4.0.2/../../../../arm-elf/lib/interwork\libg.a(strcat.o)
 .comment       0x00000ed6       0x12 c:/devkitpro/devkitarm/bin/../lib/gcc/arm-elf/4.0.2/../../../../arm-elf/lib/interwork\libg.a(strchr.o)
 .comment       0x00000ee8       0x12 c:/devkitpro/devkitarm/bin/../lib/gcc/arm-elf/4.0.2/../../../../arm-elf/lib/interwork\libg.a(strcmp.o)
 .comment       0x00000efa       0x12 c:/devkitpro/devkitarm/bin/../lib/gcc/arm-elf/4.0.2/../../../../arm-elf/lib/interwork\libg.a(strcoll.o)
 .comment       0x00000f0c       0x12 c:/devkitpro/devkitarm/bin/../lib/gcc/arm-elf/4.0.2/../../../../arm-elf/lib/interwork\libg.a(strcpy.o)
 .comment       0x00000f1e       0x12 c:/devkitpro/devkitarm/bin/../lib/gcc/arm-elf/4.0.2/../../../../arm-elf/lib/interwork\libg.a(strcspn.o)
 .comment       0x00000f30       0x12 c:/devkitpro/devkitarm/bin/../lib/gcc/arm-elf/4.0.2/../../../../arm-elf/lib/interwork\libg.a(strdup.o)
 .comment       0x00000f42       0x12 c:/devkitpro/devkitarm/bin/../lib/gcc/arm-elf/4.0.2/../../../../arm-elf/lib/interwork\libg.a(strdup_r.o)
 .comment       0x00000f54       0x12 c:/devkitpro/devkitarm/bin/../lib/gcc/arm-elf/4.0.2/../../../../arm-elf/lib/interwork\libg.a(strlen.o)
 .comment       0x00000f66       0x12 c:/devkitpro/devkitarm/bin/../lib/gcc/arm-elf/4.0.2/../../../../arm-elf/lib/interwork\libg.a(strncat.o)
 .comment       0x00000f78       0x12 c:/devkitpro/devkitarm/bin/../lib/gcc/arm-elf/4.0.2/../../../../arm-elf/lib/interwork\libg.a(strncmp.o)
 .comment       0x00000f8a       0x12 c:/devkitpro/devkitarm/bin/../lib/gcc/arm-elf/4.0.2/../../../../arm-elf/lib/interwork\libg.a(strncpy.o)
 .comment       0x00000f9c       0x12 c:/devkitpro/devkitarm/bin/../lib/gcc/arm-elf/4.0.2/../../../../arm-elf/lib/interwork\libg.a(strpbrk.o)
 .comment       0x00000fae       0x12 c:/devkitpro/devkitarm/bin/../lib/gcc/arm-elf/4.0.2/../../../../arm-elf/lib/interwork\libg.a(strrchr.o)
 .comment       0x00000fc0       0x12 c:/devkitpro/devkitarm/bin/../lib/gcc/arm-elf/4.0.2/../../../../arm-elf/lib/interwork\libg.a(strsep.o)
 .comment       0x00000fd2       0x12 c:/devkitpro/devkitarm/bin/../lib/gcc/arm-elf/4.0.2/../../../../arm-elf/lib/interwork\libg.a(strspn.o)
 .comment       0x00000fe4       0x12 c:/devkitpro/devkitarm/bin/../lib/gcc/arm-elf/4.0.2/../../../../arm-elf/lib/interwork\libg.a(strstr.o)
 .comment       0x00000ff6       0x12 c:/devkitpro/devkitarm/bin/../lib/gcc/arm-elf/4.0.2/../../../../arm-elf/lib/interwork\libg.a(strtod.o)
 .comment       0x00001008       0x12 c:/devkitpro/devkitarm/bin/../lib/gcc/arm-elf/4.0.2/../../../../arm-elf/lib/interwork\libg.a(strtok.o)
 .comment       0x0000101a       0x12 c:/devkitpro/devkitarm/bin/../lib/gcc/arm-elf/4.0.2/../../../../arm-elf/lib/interwork\libg.a(strtok_r.o)
 .comment       0x0000102c       0x12 c:/devkitpro/devkitarm/bin/../lib/gcc/arm-elf/4.0.2/../../../../arm-elf/lib/interwork\libg.a(strtol.o)
 .comment       0x0000103e       0x12 c:/devkitpro/devkitarm/bin/../lib/gcc/arm-elf/4.0.2/../../../../arm-elf/lib/interwork\libg.a(strtoll.o)
 .comment       0x00001050       0x12 c:/devkitpro/devkitarm/bin/../lib/gcc/arm-elf/4.0.2/../../../../arm-elf/lib/interwork\libg.a(strtoll_r.o)
 .comment       0x00001062       0x12 c:/devkitpro/devkitarm/bin/../lib/gcc/arm-elf/4.0.2/../../../../arm-elf/lib/interwork\libg.a(strxfrm.o)
 .comment       0x00001074       0x12 c:/devkitpro/devkitarm/bin/../lib/gcc/arm-elf/4.0.2/../../../../arm-elf/lib/interwork\libg.a(syswrite.o)
 .comment       0x00001086       0x12 c:/devkitpro/devkitarm/bin/../lib/gcc/arm-elf/4.0.2/../../../../arm-elf/lib/interwork\libg.a(vfiprintf.o)
 .comment       0x00001098       0x12 c:/devkitpro/devkitarm/bin/../lib/gcc/arm-elf/4.0.2/../../../../arm-elf/lib/interwork\libg.a(vfprintf.o)
 .comment       0x000010aa       0x12 c:/devkitpro/devkitarm/bin/../lib/gcc/arm-elf/4.0.2/../../../../arm-elf/lib/interwork\libg.a(vsprintf.o)
 .comment       0x000010bc       0x12 c:/devkitpro/devkitarm/bin/../lib/gcc/arm-elf/4.0.2/../../../../arm-elf/lib/interwork\libg.a(wbuf.o)
 .comment       0x000010ce       0x12 c:/devkitpro/devkitarm/bin/../lib/gcc/arm-elf/4.0.2/../../../../arm-elf/lib/interwork\libg.a(wcrtomb.o)
 .comment       0x000010e0       0x12 c:/devkitpro/devkitarm/bin/../lib/gcc/arm-elf/4.0.2/../../../../arm-elf/lib/interwork\libg.a(wcsrtombs.o)
 .comment       0x000010f2       0x12 c:/devkitpro/devkitarm/bin/../lib/gcc/arm-elf/4.0.2/../../../../arm-elf/lib/interwork\libg.a(wctomb_r.o)
 .comment       0x00001104       0x12 c:/devkitpro/devkitarm/bin/../lib/gcc/arm-elf/4.0.2/../../../../arm-elf/lib/interwork\libg.a(writer.o)
 .comment       0x00001116       0x12 c:/devkitpro/devkitarm/bin/../lib/gcc/arm-elf/4.0.2/../../../../arm-elf/lib/interwork\libg.a(wsetup.o)
 .comment       0x00001128       0x12 c:/devkitpro/devkitarm/bin/../lib/gcc/arm-elf/4.0.2/../../../../arm-elf/lib/interwork\libg.a(closer.o)
 .comment       0x0000113a       0x12 c:/devkitpro/devkitarm/bin/../lib/gcc/arm-elf/4.0.2/../../../../arm-elf/lib/interwork\libg.a(dtoa.o)
 .comment       0x0000114c       0x12 c:/devkitpro/devkitarm/bin/../lib/gcc/arm-elf/4.0.2/../../../../arm-elf/lib/interwork\libg.a(flags.o)
 .comment       0x0000115e       0x12 c:/devkitpro/devkitarm/bin/../lib/gcc/arm-elf/4.0.2/../../../../arm-elf/lib/interwork\libg.a(locale.o)
 .comment       0x00001170       0x12 c:/devkitpro/devkitarm/bin/../lib/gcc/arm-elf/4.0.2/../../../../arm-elf/lib/interwork\libg.a(lseekr.o)
 .comment       0x00001182       0x12 c:/devkitpro/devkitarm/bin/../lib/gcc/arm-elf/4.0.2/../../../../arm-elf/lib/interwork\libg.a(mprec.o)
 .comment       0x00001194       0x12 c:/devkitpro/devkitarm/bin/../lib/gcc/arm-elf/4.0.2/../../../../arm-elf/lib/interwork\libg.a(readr.o)
 .comment       0x000011a6       0x12 c:/devkitpro/devkitarm/bin/../lib/gcc/arm-elf/4.0.2/../../../../arm-elf/lib/interwork\libg.a(s_isinf.o)
 .comment       0x000011b8       0x12 c:/devkitpro/devkitarm/bin/../lib/gcc/arm-elf/4.0.2/interwork\libgcc.a(_umoddi3.o)
 .comment       0x000011ca       0x12 c:/devkitpro/devkitarm/bin/../lib/gcc/arm-elf/4.0.2/../../../../arm-elf/lib/interwork\libsysbase.a(abort.o)
 .comment       0x000011dc       0x12 c:/devkitpro/devkitarm/bin/../lib/gcc/arm-elf/4.0.2/../../../../arm-elf/lib/interwork\libsysbase.a(close.o)
 .comment       0x000011ee       0x12 c:/devkitpro/devkitarm/bin/../lib/gcc/arm-elf/4.0.2/../../../../arm-elf/lib/interwork\libsysbase.a(fstat.o)
 .comment       0x00001200       0x12 c:/devkitpro/devkitarm/bin/../lib/gcc/arm-elf/4.0.2/../../../../arm-elf/lib/interwork\libsysbase.a(isatty.o)
 .comment       0x00001212       0x12 c:/devkitpro/devkitarm/bin/../lib/gcc/arm-elf/4.0.2/../../../../arm-elf/lib/interwork\libsysbase.a(lseek.o)
 .comment       0x00001224       0x12 c:/devkitpro/devkitarm/bin/../lib/gcc/arm-elf/4.0.2/../../../../arm-elf/lib/interwork\libsysbase.a(open.o)
 .comment       0x00001236       0x12 c:/devkitpro/devkitarm/bin/../lib/gcc/arm-elf/4.0.2/../../../../arm-elf/lib/interwork\libsysbase.a(read.o)
 .comment       0x00001248       0x12 c:/devkitpro/devkitarm/bin/../lib/gcc/arm-elf/4.0.2/../../../../arm-elf/lib/interwork\libsysbase.a(sbrk.o)
 .comment       0x0000125a       0x12 c:/devkitpro/devkitarm/bin/../lib/gcc/arm-elf/4.0.2/../../../../arm-elf/lib/interwork\libsysbase.a(write.o)
 .comment       0x0000126c       0x12 c:/devkitpro/devkitarm/bin/../lib/gcc/arm-elf/4.0.2/../../../../arm-elf/lib/interwork\libsysbase.a(malloc_vars.o)
 .comment       0x0000127e       0x12 c:/devkitpro/devkitarm/bin/../lib/gcc/arm-elf/4.0.2/../../../../arm-elf/lib/interwork\libsysbase.a(iosupport.o)
 .comment       0x00001290       0x12 c:/devkitpro/devkitarm/bin/../lib/gcc/arm-elf/4.0.2/../../../../arm-elf/lib/interwork\libc.a(exit.o)
 .comment       0x000012a2       0x12 c:/devkitpro/devkitarm/bin/../lib/gcc/arm-elf/4.0.2/../../../../arm-elf/lib/interwork\libc.a(__call_atexit.o)
 .comment       0x000012b4       0x12 c:/devkitpro/devkitarm/bin/../lib/gcc/arm-elf/4.0.2/../../../../arm-elf/lib/interwork\libsysbase.a(_exit.o)
 .comment       0x000012c6       0x12 c:/devkitpro/devkitarm/bin/../lib/gcc/arm-elf/4.0.2/interwork/crtend.o

.debug
 *(.debug)

.line
 *(.line)

.debug_srcinfo
 *(.debug_srcinfo)

.debug_sfnames
 *(.debug_sfnames)

.debug_aranges  0x00000000     0x1270
 *(.debug_aranges)
 .debug_aranges
                0x00000000       0x20 FontPro.o
 .debug_aranges
                0x00000020       0x20 VRAMTool.o
 .debug_aranges
                0x00000040       0x20 _console.o
 .debug_aranges
                0x00000060       0x20 _consoleWriteLog.o
 .debug_aranges
                0x00000080       0x20 cardsaver.o
 .debug_aranges
                0x000000a0       0x20 cimfs.o
 .debug_aranges
                0x000000c0       0x20 cstream.o
 .debug_aranges
                0x000000e0       0x20 cstream_fs.o
 .debug_aranges
                0x00000100       0x20 directdisk.o
 .debug_aranges
                0x00000120       0x20 dll.o
 .debug_aranges
                0x00000140       0x20 dmalink.o
 .debug_aranges
                0x00000160       0x20 dsCard.o
 .debug_aranges
                0x00000180       0x20 extmem.o
 .debug_aranges
                0x000001a0       0x20 ez5_language.o
 .debug_aranges
                0x000001c0       0x20 filesys.o
 .debug_aranges
                0x000001e0       0x20 formdt.o
 .debug_aranges
                0x00000200       0x20 imgcalc.o
 .debug_aranges
                0x00000220       0x20 inifile.o
 .debug_aranges
                0x00000240       0x28 main.o
 .debug_aranges
                0x00000268       0x20 memtool.o
 .debug_aranges
                0x00000288       0x20 mwin.o
 .debug_aranges
                0x000002a8       0x20 resume.o
 .debug_aranges
                0x000002c8       0x20 shell.o
 .debug_aranges
                0x000002e8       0x58 strpcm.o
 .debug_aranges
                0x00000340       0x20 strtool.o
 .debug_aranges
                0x00000360       0x20 thumb.o
 .debug_aranges
                0x00000380       0x20 unicode.o
 .debug_aranges
                0x000003a0       0x20 zlibhelp.o
 .debug_aranges
                0x000003c0       0x20 cglb15.o
 .debug_aranges
                0x000003e0       0x20 cglcanvas.o
 .debug_aranges
                0x00000400       0x20 cglfont.o
 .debug_aranges
                0x00000420       0x20 cglscreenmain.o
 .debug_aranges
                0x00000440       0x20 cglscreenoverlay.o
 .debug_aranges
                0x00000460       0x20 cglscreensub.o
 .debug_aranges
                0x00000480       0x20 cglstream.o
 .debug_aranges
                0x000004a0       0x20 cgltgf.o
 .debug_aranges
                0x000004c0       0x20 cglunicode.o
 .debug_aranges
                0x000004e0       0x20 glglobal.o
 .debug_aranges
                0x00000500       0x20 glmemtool.o
 .debug_aranges
                0x00000520       0x20 clibdpg.o
 .debug_aranges
                0x00000540       0x20 clibmpg.o
 .debug_aranges
                0x00000560       0x20 plug_dpg.o
 .debug_aranges
                0x00000580       0x20 plug_fpk.o
 .debug_aranges
                0x000005a0       0x70 plug_gmegbs.o
 .debug_aranges
                0x00000610       0x70 plug_gmensf.o
 .debug_aranges
                0x00000680       0x20 plug_gsm.o
 .debug_aranges
                0x000006a0       0x20 plug_mp2.o
 .debug_aranges
                0x000006c0       0x20 plug_ndsrom.o
 .debug_aranges
                0x000006e0       0x20 plug_text.o
 .debug_aranges
                0x00000700       0x20 plug_text_bookmark.o
 .debug_aranges
                0x00000720       0x20 md5c.o
 .debug_aranges
                0x00000740       0x20 adler32.o
 .debug_aranges
                0x00000760       0x20 crc32.o
 .debug_aranges
                0x00000780       0x20 deflate.o
 .debug_aranges
                0x000007a0       0x20 infback.o
 .debug_aranges
                0x000007c0       0x20 inffast.o
 .debug_aranges
                0x000007e0       0x20 inflate.o
 .debug_aranges
                0x00000800       0x20 inftrees.o
 .debug_aranges
                0x00000820       0x20 trees.o
 .debug_aranges
                0x00000840       0x20 zutil.o
 .debug_aranges
                0x00000860       0x20 CP15.o
 .debug_aranges
                0x00000880       0x20 CopyJmp.o
 .debug_aranges
                0x000008a0       0x20 linkreset_arm9.o
 .debug_aranges
                0x000008c0       0x20 glCP15.o
 .debug_aranges
                0x000008e0       0x20 ../build/gba_nds_fat_2006-02-09_unicode_M3SD_ReadAlignDetect/crc.o
 .debug_aranges
                0x00000900       0x20 ../build/gba_nds_fat_2006-02-09_unicode_M3SD_ReadAlignDetect/disc_io.o
 .debug_aranges
                0x00000920       0x20 ../build/gba_nds_fat_2006-02-09_unicode_M3SD_ReadAlignDetect/fastreaddata512.o
 .debug_aranges
                0x00000940       0x20 ../build/gba_nds_fat_2006-02-09_unicode_M3SD_ReadAlignDetect/gba_nds_fat.o
 .debug_aranges
                0x00000960       0x20 ../build/gba_nds_fat_2006-02-09_unicode_M3SD_ReadAlignDetect/io_DLMS.o
 .debug_aranges
                0x00000980       0x20 ../build/gba_nds_fat_2006-02-09_unicode_M3SD_ReadAlignDetect/io_DLMS_asm.o
 .debug_aranges
                0x000009a0       0x20 ../build/gba_nds_fat_2006-02-09_unicode_M3SD_ReadAlignDetect/io_ewsd.o
 .debug_aranges
                0x000009c0       0x20 ../build/gba_nds_fat_2006-02-09_unicode_M3SD_ReadAlignDetect/io_ezsd.o
 .debug_aranges
                0x000009e0       0x20 ../build/gba_nds_fat_2006-02-09_unicode_M3SD_ReadAlignDetect/io_g6.o
 .debug_aranges
                0x00000a00       0x20 ../build/gba_nds_fat_2006-02-09_unicode_M3SD_ReadAlignDetect/io_m3cf.o
 .debug_aranges
                0x00000a20       0x20 ../build/gba_nds_fat_2006-02-09_unicode_M3SD_ReadAlignDetect/io_m3sd.o
 .debug_aranges
                0x00000a40       0x20 ../build/gba_nds_fat_2006-02-09_unicode_M3SD_ReadAlignDetect/io_m3sd_asm.o
 .debug_aranges
                0x00000a60       0x20 ../build/gba_nds_fat_2006-02-09_unicode_M3SD_ReadAlignDetect/io_mmcf.o
 .debug_aranges
                0x00000a80       0x20 ../build/gba_nds_fat_2006-02-09_unicode_M3SD_ReadAlignDetect/io_mpcf.o
 .debug_aranges
                0x00000aa0       0x20 ../build/gba_nds_fat_2006-02-09_unicode_M3SD_ReadAlignDetect/io_mpsd.o
 .debug_aranges
                0x00000ac0       0x20 ../build/gba_nds_fat_2006-02-09_unicode_M3SD_ReadAlignDetect/io_mpsd_asm.o
 .debug_aranges
                0x00000ae0       0x20 ../build/gba_nds_fat_2006-02-09_unicode_M3SD_ReadAlignDetect/io_njsd.o
 .debug_aranges
                0x00000b00       0x20 ../build/gba_nds_fat_2006-02-09_unicode_M3SD_ReadAlignDetect/io_njsd_common.o
 .debug_aranges
                0x00000b20       0x20 ../build/gba_nds_fat_2006-02-09_unicode_M3SD_ReadAlignDetect/io_nmmc.o
 .debug_aranges
                0x00000b40       0x20 ../build/gba_nds_fat_2006-02-09_unicode_M3SD_ReadAlignDetect/io_sccf.o
 .debug_aranges
                0x00000b60       0x20 ../build/gba_nds_fat_2006-02-09_unicode_M3SD_ReadAlignDetect/io_scms.o
 .debug_aranges
                0x00000b80       0x20 ../build/gba_nds_fat_2006-02-09_unicode_M3SD_ReadAlignDetect/io_scms_asm.o
 .debug_aranges
                0x00000ba0       0x20 ../build/gba_nds_fat_2006-02-09_unicode_M3SD_ReadAlignDetect/io_scsd.o
 .debug_aranges
                0x00000bc0       0x20 ../build/gba_nds_fat_2006-02-09_unicode_M3SD_ReadAlignDetect/io_scsd_asm.o
 .debug_aranges
                0x00000be0       0x20 ../build/gba_nds_fat_2006-02-09_unicode_M3SD_ReadAlignDetect/misc.o
 .debug_aranges
                0x00000c00       0x20 ../build/gba_nds_fat_2006-02-09_unicode_M3SD_ReadAlignDetect/sdbasic.o
 .debug_aranges
                0x00000c20       0x20 ../build/libmpeg2/alloc.o
 .debug_aranges
                0x00000c40       0x20 ../build/libmpeg2/decode.o
 .debug_aranges
                0x00000c60       0x20 ../build/libmpeg2/header.o
 .debug_aranges
                0x00000c80       0x20 ../build/libmpeg2/idct.o
 .debug_aranges
                0x00000ca0       0x30 ../build/libmpeg2/idct_clip.o
 .debug_aranges
                0x00000cd0       0x30 ../build/libmpeg2/idct_noclip.o
 .debug_aranges
                0x00000d00       0x20 ../build/libmpeg2/motion_comp.o
 .debug_aranges
                0x00000d20       0x50 ../build/libmpeg2/slice.o
 .debug_aranges
                0x00000d70       0x20 ../build/libgme/Blip_Buffer.o
 .debug_aranges
                0x00000d90       0x78 ../build/libgme/Classic_Emu.o
 .debug_aranges
                0x00000e08       0x28 ../build/libgme/Dual_Resampler.o
 .debug_aranges
                0x00000e30       0x78 ../build/libgme/Effects_Buffer.o
 .debug_aranges
                0x00000ea8       0x28 ../build/libgme/Fir_Resampler.o
 .debug_aranges
                0x00000ed0       0x28 ../build/libgme/Gb_Apu.o
 .debug_aranges
                0x00000ef8       0x20 ../build/libgme/Gb_Cpu.o
 .debug_aranges
                0x00000f18       0x20 ../build/libgme/Gb_Oscs.o
 .debug_aranges
                0x00000f38       0x28 ../build/libgme/Gbs_Emu.o
 .debug_aranges
                0x00000f60       0xb8 ../build/libgme/Multi_Buffer.o
 .debug_aranges
                0x00001018       0x38 ../build/libgme/Music_Emu.o
 .debug_aranges
                0x00001050       0x28 ../build/libgme/Nes_Apu.o
 .debug_aranges
                0x00001078       0x20 ../build/libgme/Nes_Cpu.o
 .debug_aranges
                0x00001098       0x20 ../build/libgme/Nes_Fme7_Apu.o
 .debug_aranges
                0x000010b8       0x20 ../build/libgme/Nes_Namco_Apu.o
 .debug_aranges
                0x000010d8       0x20 ../build/libgme/Nes_Oscs.o
 .debug_aranges
                0x000010f8       0x30 ../build/libgme/Nes_Vrc6_Apu.o
 .debug_aranges
                0x00001128       0x28 ../build/libgme/Nsf_Emu.o
 .debug_aranges
                0x00001150       0x80 ../build/libgme/abstract_file.o
 .debug_aranges
                0x000011d0       0x20 c:/devkitpro/libnds/lib\libnds9.a(keys.o)
 .debug_aranges
                0x000011f0       0x20 c:/devkitpro/libnds/lib\libnds9.a(video.o)
 .debug_aranges
                0x00001210       0x20 c:/devkitpro/libnds/lib\libnds9.a(card.o)
 .debug_aranges
                0x00001230       0x20 c:/devkitpro/libnds/lib\libnds9.a(gbfs.o)
 .debug_aranges
                0x00001250       0x20 c:/devkitpro/libnds/lib\libnds9.a(interrupts.o)

.debug_pubnames
                0x00000000     0x9bc0
 *(.debug_pubnames)
 .debug_pubnames
                0x00000000       0x90 FontPro.o
 .debug_pubnames
                0x00000090      0x153 VRAMTool.o
 .debug_pubnames
                0x000001e3       0xce _console.o
 .debug_pubnames
                0x000002b1       0x2a _consoleWriteLog.o
 .debug_pubnames
                0x000002db      0x129 cardsaver.o
 .debug_pubnames
                0x00000404      0x34a cimfs.o
 .debug_pubnames
                0x0000074e      0x15f cstream.o
 .debug_pubnames
                0x000008ad      0x187 cstream_fs.o
 .debug_pubnames
                0x00000a34      0x11f directdisk.o
 .debug_pubnames
                0x00000b53      0x178 dll.o
 .debug_pubnames
                0x00000ccb       0x79 dmalink.o
 .debug_pubnames
                0x00000d44      0x287 dsCard.o
 .debug_pubnames
                0x00000fcb       0xf6 extmem.o
 .debug_pubnames
                0x000010c1      0x20a ez5_language.o
 .debug_pubnames
                0x000012cb      0x445 filesys.o
 .debug_pubnames
                0x00001710       0x5b formdt.o
 .debug_pubnames
                0x0000176b       0xc0 imgcalc.o
 .debug_pubnames
                0x0000182b       0x38 inifile.o
 .debug_pubnames
                0x00001863      0x9a3 main.o
 .debug_pubnames
                0x00002206      0x16c memtool.o
 .debug_pubnames
                0x00002372      0x786 mwin.o
 .debug_pubnames
                0x00002af8      0x1fa mwin_color.o
 .debug_pubnames
                0x00002cf2       0x5c resume.o
 .debug_pubnames
                0x00002d4e      0x155 shell.o
 .debug_pubnames
                0x00002ea3      0x1ed strpcm.o
 .debug_pubnames
                0x00003090       0x3b strtool.o
 .debug_pubnames
                0x000030cb       0x8d thumb.o
 .debug_pubnames
                0x00003158      0x126 unicode.o
 .debug_pubnames
                0x0000327e       0x48 zlibhelp.o
 .debug_pubnames
                0x000032c6       0x9e cglb15.o
 .debug_pubnames
                0x00003364      0x334 cglcanvas.o
 .debug_pubnames
                0x00003698      0x181 cglfont.o
 .debug_pubnames
                0x00003819      0x1ff cglscreenmain.o
 .debug_pubnames
                0x00003a18      0x12f cglscreenoverlay.o
 .debug_pubnames
                0x00003b47       0xdf cglscreensub.o
 .debug_pubnames
                0x00003c26      0x132 cglstream.o
 .debug_pubnames
                0x00003d58       0x9e cgltgf.o
 .debug_pubnames
                0x00003df6       0xb5 cglunicode.o
 .debug_pubnames
                0x00003eab       0xbd glglobal.o
 .debug_pubnames
                0x00003f68       0xbc glmemtool.o
 .debug_pubnames
                0x00004024      0x132 clibdpg.o
 .debug_pubnames
                0x00004156      0x2a8 clibmpg.o
 .debug_pubnames
                0x000043fe      0x1c9 plug_dpg.o
 .debug_pubnames
                0x000045c7       0x84 plug_fpk.o
 .debug_pubnames
                0x0000464b      0x271 plug_gmegbs.o
 .debug_pubnames
                0x000048bc      0x271 plug_gmensf.o
 .debug_pubnames
                0x00004b2d       0xce plug_gsm.o
 .debug_pubnames
                0x00004bfb       0xa0 plug_mp2.o
 .debug_pubnames
                0x00004c9b       0x2c plug_ndsrom.o
 .debug_pubnames
                0x00004cc7       0xc5 plug_text.o
 .debug_pubnames
                0x00004d8c      0x13f plug_text_bookmark.o
 .debug_pubnames
                0x00004ecb       0x39 md5c.o
 .debug_pubnames
                0x00004f04       0x32 adler32.o
 .debug_pubnames
                0x00004f36       0x40 crc32.o
 .debug_pubnames
                0x00004f76       0xf9 deflate.o
 .debug_pubnames
                0x0000506f       0x4a infback.o
 .debug_pubnames
                0x000050b9       0x23 inffast.o
 .debug_pubnames
                0x000050dc       0xd5 inflate.o
 .debug_pubnames
                0x000051b1       0x3a inftrees.o
 .debug_pubnames
                0x000051eb       0x84 trees.o
 .debug_pubnames
                0x0000526f       0x66 zutil.o
 .debug_pubnames
                0x000052d5       0xbe ../build/gba_nds_fat_2006-02-09_unicode_M3SD_ReadAlignDetect/crc.o
 .debug_pubnames
                0x00005393      0x118 ../build/gba_nds_fat_2006-02-09_unicode_M3SD_ReadAlignDetect/disc_io.o
 .debug_pubnames
                0x000054ab      0x533 ../build/gba_nds_fat_2006-02-09_unicode_M3SD_ReadAlignDetect/gba_nds_fat.o
 .debug_pubnames
                0x000059de       0xab ../build/gba_nds_fat_2006-02-09_unicode_M3SD_ReadAlignDetect/io_DLMS.o
 .debug_pubnames
                0x00005a89      0x1a8 ../build/gba_nds_fat_2006-02-09_unicode_M3SD_ReadAlignDetect/io_ewsd.o
 .debug_pubnames
                0x00005c31      0x250 ../build/gba_nds_fat_2006-02-09_unicode_M3SD_ReadAlignDetect/io_ezsd.o
 .debug_pubnames
                0x00005e81      0x24e ../build/gba_nds_fat_2006-02-09_unicode_M3SD_ReadAlignDetect/io_g6.o
 .debug_pubnames
                0x000060cf       0xb9 ../build/gba_nds_fat_2006-02-09_unicode_M3SD_ReadAlignDetect/io_m3cf.o
 .debug_pubnames
                0x00006188      0x15f ../build/gba_nds_fat_2006-02-09_unicode_M3SD_ReadAlignDetect/io_m3sd.o
 .debug_pubnames
                0x000062e7       0xab ../build/gba_nds_fat_2006-02-09_unicode_M3SD_ReadAlignDetect/io_mmcf.o
 .debug_pubnames
                0x00006392       0xab ../build/gba_nds_fat_2006-02-09_unicode_M3SD_ReadAlignDetect/io_mpcf.o
 .debug_pubnames
                0x0000643d      0x124 ../build/gba_nds_fat_2006-02-09_unicode_M3SD_ReadAlignDetect/io_mpsd.o
 .debug_pubnames
                0x00006561       0xb1 ../build/gba_nds_fat_2006-02-09_unicode_M3SD_ReadAlignDetect/io_njsd.o
 .debug_pubnames
                0x00006612       0x3e ../build/gba_nds_fat_2006-02-09_unicode_M3SD_ReadAlignDetect/io_njsd_common.o
 .debug_pubnames
                0x00006650      0x169 ../build/gba_nds_fat_2006-02-09_unicode_M3SD_ReadAlignDetect/io_nmmc.o
 .debug_pubnames
                0x000067b9       0x67 ../build/gba_nds_fat_2006-02-09_unicode_M3SD_ReadAlignDetect/io_sccf.o
 .debug_pubnames
                0x00006820       0xa6 ../build/gba_nds_fat_2006-02-09_unicode_M3SD_ReadAlignDetect/io_scms.o
 .debug_pubnames
                0x000068c6       0xa6 ../build/gba_nds_fat_2006-02-09_unicode_M3SD_ReadAlignDetect/io_scsd.o
 .debug_pubnames
                0x0000696c       0x92 ../build/gba_nds_fat_2006-02-09_unicode_M3SD_ReadAlignDetect/misc.o
 .debug_pubnames
                0x000069fe       0x93 ../build/gba_nds_fat_2006-02-09_unicode_M3SD_ReadAlignDetect/sdbasic.o
 .debug_pubnames
                0x00006a91       0x49 ../build/libmpeg2/alloc.o
 .debug_pubnames
                0x00006ada      0x146 ../build/libmpeg2/decode.o
 .debug_pubnames
                0x00006c20      0x188 ../build/libmpeg2/header.o
 .debug_pubnames
                0x00006da8       0x68 ../build/libmpeg2/idct.o
 .debug_pubnames
                0x00006e10       0x90 ../build/libmpeg2/idct_clip.o
 .debug_pubnames
                0x00006ea0       0x76 ../build/libmpeg2/idct_noclip.o
 .debug_pubnames
                0x00006f16       0x40 ../build/libmpeg2/motion_comp.o
 .debug_pubnames
                0x00006f56       0x40 ../build/libmpeg2/slice.o
 .debug_pubnames
                0x00006f96      0x27b ../build/libgme/Blip_Buffer.o
 .debug_pubnames
                0x00007211      0x2d5 ../build/libgme/Classic_Emu.o
 .debug_pubnames
                0x000074e6      0x154 ../build/libgme/Dual_Resampler.o
 .debug_pubnames
                0x0000763a      0x3dc ../build/libgme/Effects_Buffer.o
 .debug_pubnames
                0x00007a16      0x166 ../build/libgme/Fir_Resampler.o
 .debug_pubnames
                0x00007b7c      0x14a ../build/libgme/Gb_Apu.o
 .debug_pubnames
                0x00007cc6       0xbe ../build/libgme/Gb_Cpu.o
 .debug_pubnames
                0x00007d84       0xef ../build/libgme/Gb_Oscs.o
 .debug_pubnames
                0x00007e73      0x293 ../build/libgme/Gbs_Emu.o
 .debug_pubnames
                0x00008106      0x570 ../build/libgme/Multi_Buffer.o
 .debug_pubnames
                0x00008676      0x141 ../build/libgme/Music_Emu.o
 .debug_pubnames
                0x000087b7      0x189 ../build/libgme/Nes_Apu.o
 .debug_pubnames
                0x00008940       0xcb ../build/libgme/Nes_Cpu.o
 .debug_pubnames
                0x00008a0b       0x62 ../build/libgme/Nes_Fme7_Apu.o
 .debug_pubnames
                0x00008a6d      0x105 ../build/libgme/Nes_Namco_Apu.o
 .debug_pubnames
                0x00008b72      0x183 ../build/libgme/Nes_Oscs.o
 .debug_pubnames
                0x00008cf5      0x1c7 ../build/libgme/Nes_Vrc6_Apu.o
 .debug_pubnames
                0x00008ebc      0x347 ../build/libgme/Nsf_Emu.o
 .debug_pubnames
                0x00009203      0x6b3 ../build/libgme/abstract_file.o
 .debug_pubnames
                0x000098b6       0x51 c:/devkitpro/libnds/lib\libnds9.a(keys.o)
 .debug_pubnames
                0x00009907       0xd8 c:/devkitpro/libnds/lib\libnds9.a(video.o)
 .debug_pubnames
                0x000099df       0xc1 c:/devkitpro/libnds/lib\libnds9.a(card.o)
 .debug_pubnames
                0x00009aa0       0xa0 c:/devkitpro/libnds/lib\libnds9.a(gbfs.o)
 .debug_pubnames
                0x00009b40       0x80 c:/devkitpro/libnds/lib\libnds9.a(interrupts.o)

.debug_info     0x00000000    0x7188b
 *(.debug_info)
 .debug_info    0x00000000      0x7da FontPro.o
 .debug_info    0x000007da      0x6d1 VRAMTool.o
 .debug_info    0x00000eab      0x3ff _console.o
 .debug_info    0x000012aa       0xde _consoleWriteLog.o
 .debug_info    0x00001388      0x56b cardsaver.o
 .debug_info    0x000018f3     0x1236 cimfs.o
 .debug_info    0x00002b29      0x69b cstream.o
 .debug_info    0x000031c4      0x5f9 cstream_fs.o
 .debug_info    0x000037bd      0xfcb directdisk.o
 .debug_info    0x00004788     0x1622 dll.o
 .debug_info    0x00005daa      0x1a0 dmalink.o
 .debug_info    0x00005f4a      0xfe0 dsCard.o
 .debug_info    0x00006f2a     0x13a6 extmem.o
 .debug_info    0x000082d0      0x8ec ez5_language.o
 .debug_info    0x00008bbc     0x213b filesys.o
 .debug_info    0x0000acf7      0x225 formdt.o
 .debug_info    0x0000af1c      0x2f4 imgcalc.o
 .debug_info    0x0000b210     0x11f6 inifile.o
 .debug_info    0x0000c406     0x7963 main.o
 .debug_info    0x00013d69      0x828 memtool.o
 .debug_info    0x00014591     0x47e7 mwin.o
 .debug_info    0x00018d78      0x2c9 mwin_color.o
 .debug_info    0x00019041     0x1ba1 resume.o
 .debug_info    0x0001abe2     0x1083 shell.o
 .debug_info    0x0001bc65      0x653 strpcm.o
 .debug_info    0x0001c2b8      0x13a strtool.o
 .debug_info    0x0001c3f2     0x153e thumb.o
 .debug_info    0x0001d930      0x380 unicode.o
 .debug_info    0x0001dcb0      0x361 zlibhelp.o
 .debug_info    0x0001e011      0xb56 cglb15.o
 .debug_info    0x0001eb67     0x19c7 cglcanvas.o
 .debug_info    0x0002052e     0x1100 cglfont.o
 .debug_info    0x0002162e      0xc3e cglscreenmain.o
 .debug_info    0x0002226c      0xbad cglscreenoverlay.o
 .debug_info    0x00022e19      0xbd4 cglscreensub.o
 .debug_info    0x000239ed      0x4e4 cglstream.o
 .debug_info    0x00023ed1      0xc2d cgltgf.o
 .debug_info    0x00024afe      0x55b cglunicode.o
 .debug_info    0x00025059      0xbb1 glglobal.o
 .debug_info    0x00025c0a      0x41b glmemtool.o
 .debug_info    0x00026025     0x168f clibdpg.o
 .debug_info    0x000276b4     0x3f0d clibmpg.o
 .debug_info    0x0002b5c1     0x10b2 plug_dpg.o
 .debug_info    0x0002c673      0x2d6 plug_fpk.o
 .debug_info    0x0002c949     0x15da plug_gmegbs.o
 .debug_info    0x0002df23     0x16ad plug_gmensf.o
 .debug_info    0x0002f5d0      0x455 plug_gsm.o
 .debug_info    0x0002fa25      0x2c9 plug_mp2.o
 .debug_info    0x0002fcee     0x112d plug_ndsrom.o
 .debug_info    0x00030e1b     0x17c0 plug_text.o
 .debug_info    0x000325db      0x890 plug_text_bookmark.o
 .debug_info    0x00032e6b      0x3fe md5c.o
 .debug_info    0x00033269      0x166 adler32.o
 .debug_info    0x000333cf      0x393 crc32.o
 .debug_info    0x00033762     0x1158 deflate.o
 .debug_info    0x000348ba      0x916 infback.o
 .debug_info    0x000351d0      0x76e inffast.o
 .debug_info    0x0003593e      0xc56 inflate.o
 .debug_info    0x00036594      0x352 inftrees.o
 .debug_info    0x000368e6     0x17cf trees.o
 .debug_info    0x000380b5      0x1b3 zutil.o
 .debug_info    0x00038268       0x90 CP15.o
 .debug_info    0x000382f8       0x93 CopyJmp.o
 .debug_info    0x0003838b       0x9a linkreset_arm9.o
 .debug_info    0x00038425       0x97 glCP15.o
 .debug_info    0x000384bc      0xa28 ../build/gba_nds_fat_2006-02-09_unicode_M3SD_ReadAlignDetect/crc.o
 .debug_info    0x00038ee4      0x565 ../build/gba_nds_fat_2006-02-09_unicode_M3SD_ReadAlignDetect/disc_io.o
 .debug_info    0x00039449      0x121 ../build/gba_nds_fat_2006-02-09_unicode_M3SD_ReadAlignDetect/fastreaddata512.o
 .debug_info    0x0003956a     0x204c ../build/gba_nds_fat_2006-02-09_unicode_M3SD_ReadAlignDetect/gba_nds_fat.o
 .debug_info    0x0003b5b6      0x340 ../build/gba_nds_fat_2006-02-09_unicode_M3SD_ReadAlignDetect/io_DLMS.o
 .debug_info    0x0003b8f6      0x110 ../build/gba_nds_fat_2006-02-09_unicode_M3SD_ReadAlignDetect/io_DLMS_asm.o
 .debug_info    0x0003ba06      0xea9 ../build/gba_nds_fat_2006-02-09_unicode_M3SD_ReadAlignDetect/io_ewsd.o
 .debug_info    0x0003c8af     0x1982 ../build/gba_nds_fat_2006-02-09_unicode_M3SD_ReadAlignDetect/io_ezsd.o
 .debug_info    0x0003e231       0x73 ../build/gba_nds_fat_2006-02-09_unicode_M3SD_ReadAlignDetect/io_fcsr.o
 .debug_info    0x0003e2a4     0x1e8e ../build/gba_nds_fat_2006-02-09_unicode_M3SD_ReadAlignDetect/io_g6.o
 .debug_info    0x00040132      0x3db ../build/gba_nds_fat_2006-02-09_unicode_M3SD_ReadAlignDetect/io_m3cf.o
 .debug_info    0x0004050d      0x852 ../build/gba_nds_fat_2006-02-09_unicode_M3SD_ReadAlignDetect/io_m3sd.o
 .debug_info    0x00040d5f      0x110 ../build/gba_nds_fat_2006-02-09_unicode_M3SD_ReadAlignDetect/io_m3sd_asm.o
 .debug_info    0x00040e6f      0x419 ../build/gba_nds_fat_2006-02-09_unicode_M3SD_ReadAlignDetect/io_mmcf.o
 .debug_info    0x00041288      0x38b ../build/gba_nds_fat_2006-02-09_unicode_M3SD_ReadAlignDetect/io_mpcf.o
 .debug_info    0x00041613      0x6ce ../build/gba_nds_fat_2006-02-09_unicode_M3SD_ReadAlignDetect/io_mpsd.o
 .debug_info    0x00041ce1      0x110 ../build/gba_nds_fat_2006-02-09_unicode_M3SD_ReadAlignDetect/io_mpsd_asm.o
 .debug_info    0x00041df1      0xcc0 ../build/gba_nds_fat_2006-02-09_unicode_M3SD_ReadAlignDetect/io_njsd.o
 .debug_info    0x00042ab1      0x289 ../build/gba_nds_fat_2006-02-09_unicode_M3SD_ReadAlignDetect/io_njsd_common.o
 .debug_info    0x00042d3a      0xa47 ../build/gba_nds_fat_2006-02-09_unicode_M3SD_ReadAlignDetect/io_nmmc.o
 .debug_info    0x00043781      0x285 ../build/gba_nds_fat_2006-02-09_unicode_M3SD_ReadAlignDetect/io_sccf.o
 .debug_info    0x00043a06      0x339 ../build/gba_nds_fat_2006-02-09_unicode_M3SD_ReadAlignDetect/io_scms.o
 .debug_info    0x00043d3f      0x110 ../build/gba_nds_fat_2006-02-09_unicode_M3SD_ReadAlignDetect/io_scms_asm.o
 .debug_info    0x00043e4f      0x339 ../build/gba_nds_fat_2006-02-09_unicode_M3SD_ReadAlignDetect/io_scsd.o
 .debug_info    0x00044188      0x110 ../build/gba_nds_fat_2006-02-09_unicode_M3SD_ReadAlignDetect/io_scsd_asm.o
 .debug_info    0x00044298      0x269 ../build/gba_nds_fat_2006-02-09_unicode_M3SD_ReadAlignDetect/misc.o
 .debug_info    0x00044501      0x172 ../build/gba_nds_fat_2006-02-09_unicode_M3SD_ReadAlignDetect/sdbasic.o
 .debug_info    0x00044673      0x1cb ../build/libmpeg2/alloc.o
 .debug_info    0x0004483e     0x162c ../build/libmpeg2/decode.o
 .debug_info    0x00045e6a     0x1a00 ../build/libmpeg2/header.o
 .debug_info    0x0004786a      0x1a4 ../build/libmpeg2/idct.o
 .debug_info    0x00047a0e      0x9a7 ../build/libmpeg2/idct_clip.o
 .debug_info    0x000483b5      0x93c ../build/libmpeg2/idct_noclip.o
 .debug_info    0x00048cf1      0x698 ../build/libmpeg2/motion_comp.o
 .debug_info    0x00049389     0x1f4d ../build/libmpeg2/slice.o
 .debug_info    0x0004b2d6     0x156f ../build/libgme/Blip_Buffer.o
 .debug_info    0x0004c845     0x1778 ../build/libgme/Classic_Emu.o
 .debug_info    0x0004dfbd     0x1820 ../build/libgme/Dual_Resampler.o
 .debug_info    0x0004f7dd     0x23c5 ../build/libgme/Effects_Buffer.o
 .debug_info    0x00051ba2     0x1032 ../build/libgme/Fir_Resampler.o
 .debug_info    0x00052bd4     0x2179 ../build/libgme/Gb_Apu.o
 .debug_info    0x00054d4d     0x1139 ../build/libgme/Gb_Cpu.o
 .debug_info    0x00055e86     0x2475 ../build/libgme/Gb_Oscs.o
 .debug_info    0x000582fb     0x2c5c ../build/libgme/Gbs_Emu.o
 .debug_info    0x0005af57     0x2137 ../build/libgme/Multi_Buffer.o
 .debug_info    0x0005d08e      0xaa5 ../build/libgme/Music_Emu.o
 .debug_info    0x0005db33     0x2e22 ../build/libgme/Nes_Apu.o
 .debug_info    0x00060955     0x169b ../build/libgme/Nes_Cpu.o
 .debug_info    0x00061ff0     0x1450 ../build/libgme/Nes_Fme7_Apu.o
 .debug_info    0x00063440     0x1720 ../build/libgme/Nes_Namco_Apu.o
 .debug_info    0x00064b60     0x2e9d ../build/libgme/Nes_Oscs.o
 .debug_info    0x000679fd     0x1f7f ../build/libgme/Nes_Vrc6_Apu.o
 .debug_info    0x0006997c     0x4ca0 ../build/libgme/Nsf_Emu.o
 .debug_info    0x0006e61c     0x2164 ../build/libgme/abstract_file.o
 .debug_info    0x00070780      0x1b3 c:/devkitpro/libnds/lib\libnds9.a(keys.o)
 .debug_info    0x00070933      0x4e0 c:/devkitpro/libnds/lib\libnds9.a(video.o)
 .debug_info    0x00070e13      0x3e3 c:/devkitpro/libnds/lib\libnds9.a(card.o)
 .debug_info    0x000711f6      0x4a1 c:/devkitpro/libnds/lib\libnds9.a(gbfs.o)
 .debug_info    0x00071697      0x1f4 c:/devkitpro/libnds/lib\libnds9.a(interrupts.o)

.debug_abbrev   0x00000000    0x12855
 *(.debug_abbrev)
 .debug_abbrev  0x00000000      0x1fc FontPro.o
 .debug_abbrev  0x000001fc      0x150 VRAMTool.o
 .debug_abbrev  0x0000034c      0x1c4 _console.o
 .debug_abbrev  0x00000510       0x93 _consoleWriteLog.o
 .debug_abbrev  0x000005a3      0x1d2 cardsaver.o
 .debug_abbrev  0x00000775      0x386 cimfs.o
 .debug_abbrev  0x00000afb      0x278 cstream.o
 .debug_abbrev  0x00000d73      0x21d cstream_fs.o
 .debug_abbrev  0x00000f90      0x38b directdisk.o
 .debug_abbrev  0x0000131b      0x2eb dll.o
 .debug_abbrev  0x00001606       0xca dmalink.o
 .debug_abbrev  0x000016d0      0x27f dsCard.o
 .debug_abbrev  0x0000194f      0x2be extmem.o
 .debug_abbrev  0x00001c0d       0xbd ez5_language.o
 .debug_abbrev  0x00001cca      0x497 filesys.o
 .debug_abbrev  0x00002161      0x12a formdt.o
 .debug_abbrev  0x0000228b      0x137 imgcalc.o
 .debug_abbrev  0x000023c2      0x264 inifile.o
 .debug_abbrev  0x00002626      0x661 main.o
 .debug_abbrev  0x00002c87      0x1ff memtool.o
 .debug_abbrev  0x00002e86      0x4e8 mwin.o
 .debug_abbrev  0x0000336e       0x5e mwin_color.o
 .debug_abbrev  0x000033cc      0x237 resume.o
 .debug_abbrev  0x00003603      0x3e1 shell.o
 .debug_abbrev  0x000039e4      0x1df strpcm.o
 .debug_abbrev  0x00003bc3       0xa0 strtool.o
 .debug_abbrev  0x00003c63      0x3e6 thumb.o
 .debug_abbrev  0x00004049      0x13a unicode.o
 .debug_abbrev  0x00004183      0x140 zlibhelp.o
 .debug_abbrev  0x000042c3      0x220 cglb15.o
 .debug_abbrev  0x000044e3      0x3bc cglcanvas.o
 .debug_abbrev  0x0000489f      0x2d7 cglfont.o
 .debug_abbrev  0x00004b76      0x259 cglscreenmain.o
 .debug_abbrev  0x00004dcf      0x2d4 cglscreenoverlay.o
 .debug_abbrev  0x000050a3      0x2e3 cglscreensub.o
 .debug_abbrev  0x00005386      0x202 cglstream.o
 .debug_abbrev  0x00005588      0x250 cgltgf.o
 .debug_abbrev  0x000057d8      0x22e cglunicode.o
 .debug_abbrev  0x00005a06      0x226 glglobal.o
 .debug_abbrev  0x00005c2c      0x14b glmemtool.o
 .debug_abbrev  0x00005d77      0x2ab clibdpg.o
 .debug_abbrev  0x00006022      0x3e4 clibmpg.o
 .debug_abbrev  0x00006406      0x302 plug_dpg.o
 .debug_abbrev  0x00006708      0x113 plug_fpk.o
 .debug_abbrev  0x0000681b      0x57c plug_gmegbs.o
 .debug_abbrev  0x00006d97      0x54e plug_gmensf.o
 .debug_abbrev  0x000072e5      0x1c9 plug_gsm.o
 .debug_abbrev  0x000074ae      0x145 plug_mp2.o
 .debug_abbrev  0x000075f3      0x293 plug_ndsrom.o
 .debug_abbrev  0x00007886      0x301 plug_text.o
 .debug_abbrev  0x00007b87      0x2fd plug_text_bookmark.o
 .debug_abbrev  0x00007e84      0x1ce md5c.o
 .debug_abbrev  0x00008052       0xab adler32.o
 .debug_abbrev  0x000080fd      0x1ca crc32.o
 .debug_abbrev  0x000082c7      0x301 deflate.o
 .debug_abbrev  0x000085c8      0x23d infback.o
 .debug_abbrev  0x00008805      0x175 inffast.o
 .debug_abbrev  0x0000897a      0x2b6 inflate.o
 .debug_abbrev  0x00008c30      0x12b inftrees.o
 .debug_abbrev  0x00008d5b      0x2eb trees.o
 .debug_abbrev  0x00009046      0x10b zutil.o
 .debug_abbrev  0x00009151       0x14 CP15.o
 .debug_abbrev  0x00009165       0x14 CopyJmp.o
 .debug_abbrev  0x00009179       0x14 linkreset_arm9.o
 .debug_abbrev  0x0000918d       0x14 glCP15.o
 .debug_abbrev  0x000091a1      0x213 ../build/gba_nds_fat_2006-02-09_unicode_M3SD_ReadAlignDetect/crc.o
 .debug_abbrev  0x000093b4      0x1a9 ../build/gba_nds_fat_2006-02-09_unicode_M3SD_ReadAlignDetect/disc_io.o
 .debug_abbrev  0x0000955d       0x14 ../build/gba_nds_fat_2006-02-09_unicode_M3SD_ReadAlignDetect/fastreaddata512.o
 .debug_abbrev  0x00009571      0x37d ../build/gba_nds_fat_2006-02-09_unicode_M3SD_ReadAlignDetect/gba_nds_fat.o
 .debug_abbrev  0x000098ee      0x14e ../build/gba_nds_fat_2006-02-09_unicode_M3SD_ReadAlignDetect/io_DLMS.o
 .debug_abbrev  0x00009a3c       0x14 ../build/gba_nds_fat_2006-02-09_unicode_M3SD_ReadAlignDetect/io_DLMS_asm.o
 .debug_abbrev  0x00009a50      0x3aa ../build/gba_nds_fat_2006-02-09_unicode_M3SD_ReadAlignDetect/io_ewsd.o
 .debug_abbrev  0x00009dfa      0x3d7 ../build/gba_nds_fat_2006-02-09_unicode_M3SD_ReadAlignDetect/io_ezsd.o
 .debug_abbrev  0x0000a1d1       0x2a ../build/gba_nds_fat_2006-02-09_unicode_M3SD_ReadAlignDetect/io_fcsr.o
 .debug_abbrev  0x0000a1fb      0x359 ../build/gba_nds_fat_2006-02-09_unicode_M3SD_ReadAlignDetect/io_g6.o
 .debug_abbrev  0x0000a554      0x1e5 ../build/gba_nds_fat_2006-02-09_unicode_M3SD_ReadAlignDetect/io_m3cf.o
 .debug_abbrev  0x0000a739      0x31b ../build/gba_nds_fat_2006-02-09_unicode_M3SD_ReadAlignDetect/io_m3sd.o
 .debug_abbrev  0x0000aa54       0x14 ../build/gba_nds_fat_2006-02-09_unicode_M3SD_ReadAlignDetect/io_m3sd_asm.o
 .debug_abbrev  0x0000aa68      0x18b ../build/gba_nds_fat_2006-02-09_unicode_M3SD_ReadAlignDetect/io_mmcf.o
 .debug_abbrev  0x0000abf3      0x19a ../build/gba_nds_fat_2006-02-09_unicode_M3SD_ReadAlignDetect/io_mpcf.o
 .debug_abbrev  0x0000ad8d      0x282 ../build/gba_nds_fat_2006-02-09_unicode_M3SD_ReadAlignDetect/io_mpsd.o
 .debug_abbrev  0x0000b00f       0x14 ../build/gba_nds_fat_2006-02-09_unicode_M3SD_ReadAlignDetect/io_mpsd_asm.o
 .debug_abbrev  0x0000b023      0x2c9 ../build/gba_nds_fat_2006-02-09_unicode_M3SD_ReadAlignDetect/io_njsd.o
 .debug_abbrev  0x0000b2ec      0x135 ../build/gba_nds_fat_2006-02-09_unicode_M3SD_ReadAlignDetect/io_njsd_common.o
 .debug_abbrev  0x0000b421      0x280 ../build/gba_nds_fat_2006-02-09_unicode_M3SD_ReadAlignDetect/io_nmmc.o
 .debug_abbrev  0x0000b6a1      0x13c ../build/gba_nds_fat_2006-02-09_unicode_M3SD_ReadAlignDetect/io_sccf.o
 .debug_abbrev  0x0000b7dd      0x174 ../build/gba_nds_fat_2006-02-09_unicode_M3SD_ReadAlignDetect/io_scms.o
 .debug_abbrev  0x0000b951       0x14 ../build/gba_nds_fat_2006-02-09_unicode_M3SD_ReadAlignDetect/io_scms_asm.o
 .debug_abbrev  0x0000b965      0x174 ../build/gba_nds_fat_2006-02-09_unicode_M3SD_ReadAlignDetect/io_scsd.o
 .debug_abbrev  0x0000bad9       0x14 ../build/gba_nds_fat_2006-02-09_unicode_M3SD_ReadAlignDetect/io_scsd_asm.o
 .debug_abbrev  0x0000baed      0x12b ../build/gba_nds_fat_2006-02-09_unicode_M3SD_ReadAlignDetect/misc.o
 .debug_abbrev  0x0000bc18       0xc8 ../build/gba_nds_fat_2006-02-09_unicode_M3SD_ReadAlignDetect/sdbasic.o
 .debug_abbrev  0x0000bce0       0xfe ../build/libmpeg2/alloc.o
 .debug_abbrev  0x0000bdde        0x1 ../build/libmpeg2/cpu_accel.o
 .debug_abbrev  0x0000bddf        0x1 ../build/libmpeg2/cpu_state.o
 .debug_abbrev  0x0000bde0      0x2ef ../build/libmpeg2/decode.o
 .debug_abbrev  0x0000c0cf      0x357 ../build/libmpeg2/header.o
 .debug_abbrev  0x0000c426       0xb9 ../build/libmpeg2/idct.o
 .debug_abbrev  0x0000c4df      0x1cf ../build/libmpeg2/idct_clip.o
 .debug_abbrev  0x0000c6ae      0x17f ../build/libmpeg2/idct_noclip.o
 .debug_abbrev  0x0000c82d      0x118 ../build/libmpeg2/motion_comp.o
 .debug_abbrev  0x0000c945      0x2d5 ../build/libmpeg2/slice.o
 .debug_abbrev  0x0000cc1a      0x40b ../build/libgme/Blip_Buffer.o
 .debug_abbrev  0x0000d025      0x49e ../build/libgme/Classic_Emu.o
 .debug_abbrev  0x0000d4c3      0x465 ../build/libgme/Dual_Resampler.o
 .debug_abbrev  0x0000d928      0x535 ../build/libgme/Effects_Buffer.o
 .debug_abbrev  0x0000de5d      0x3a4 ../build/libgme/Fir_Resampler.o
 .debug_abbrev  0x0000e201      0x4e0 ../build/libgme/Gb_Apu.o
 .debug_abbrev  0x0000e6e1      0x404 ../build/libgme/Gb_Cpu.o
 .debug_abbrev  0x0000eae5      0x4a4 ../build/libgme/Gb_Oscs.o
 .debug_abbrev  0x0000ef89      0x5d4 ../build/libgme/Gbs_Emu.o
 .debug_abbrev  0x0000f55d      0x489 ../build/libgme/Multi_Buffer.o
 .debug_abbrev  0x0000f9e6      0x35e ../build/libgme/Music_Emu.o
 .debug_abbrev  0x0000fd44      0x52b ../build/libgme/Nes_Apu.o
 .debug_abbrev  0x0001026f      0x410 ../build/libgme/Nes_Cpu.o
 .debug_abbrev  0x0001067f      0x40f ../build/libgme/Nes_Fme7_Apu.o
 .debug_abbrev  0x00010a8e      0x3fd ../build/libgme/Nes_Namco_Apu.o
 .debug_abbrev  0x00010e8b      0x50e ../build/libgme/Nes_Oscs.o
 .debug_abbrev  0x00011399      0x481 ../build/libgme/Nes_Vrc6_Apu.o
 .debug_abbrev  0x0001181a      0x6ed ../build/libgme/Nsf_Emu.o
 .debug_abbrev  0x00011f07      0x44a ../build/libgme/abstract_file.o
 .debug_abbrev  0x00012351       0x91 c:/devkitpro/libnds/lib\libnds9.a(keys.o)
 .debug_abbrev  0x000123e2       0xbd c:/devkitpro/libnds/lib\libnds9.a(video.o)
 .debug_abbrev  0x0001249f      0x126 c:/devkitpro/libnds/lib\libnds9.a(card.o)
 .debug_abbrev  0x000125c5      0x173 c:/devkitpro/libnds/lib\libnds9.a(gbfs.o)
 .debug_abbrev  0x00012738      0x11d c:/devkitpro/libnds/lib\libnds9.a(interrupts.o)

.debug_line     0x00000000    0x1ae13
 *(.debug_line)
 .debug_line    0x00000000      0x1dd FontPro.o
 .debug_line    0x000001dd      0x172 VRAMTool.o
 .debug_line    0x0000034f      0x16a _console.o
 .debug_line    0x000004b9       0xb6 _consoleWriteLog.o
 .debug_line    0x0000056f      0x210 cardsaver.o
 .debug_line    0x0000077f      0x2d1 cimfs.o
 .debug_line    0x00000a50      0x101 cstream.o
 .debug_line    0x00000b51      0x127 cstream_fs.o
 .debug_line    0x00000c78      0x334 directdisk.o
 .debug_line    0x00000fac      0x2e3 dll.o
 .debug_line    0x0000128f       0xe7 dmalink.o
 .debug_line    0x00001376      0x4f5 dsCard.o
 .debug_line    0x0000186b      0x399 extmem.o
 .debug_line    0x00001c04      0x132 ez5_language.o
 .debug_line    0x00001d36      0x703 filesys.o
 .debug_line    0x00002439      0x108 formdt.o
 .debug_line    0x00002541       0xeb imgcalc.o
 .debug_line    0x0000262c      0x337 inifile.o
 .debug_line    0x00002963     0x18c0 main.o
 .debug_line    0x00004223      0x1de memtool.o
 .debug_line    0x00004401      0xe81 mwin.o
 .debug_line    0x00005282       0x97 mwin_color.o
 .debug_line    0x00005319      0x2c7 resume.o
 .debug_line    0x000055e0      0x3e1 shell.o
 .debug_line    0x000059c1      0x20b strpcm.o
 .debug_line    0x00005bcc       0x8d strtool.o
 .debug_line    0x00005c59      0x2b6 thumb.o
 .debug_line    0x00005f0f      0x16b unicode.o
 .debug_line    0x0000607a      0x143 zlibhelp.o
 .debug_line    0x000061bd      0x122 cglb15.o
 .debug_line    0x000062df      0x3a4 cglcanvas.o
 .debug_line    0x00006683      0x244 cglfont.o
 .debug_line    0x000068c7      0x224 cglscreenmain.o
 .debug_line    0x00006aeb      0x1b5 cglscreenoverlay.o
 .debug_line    0x00006ca0      0x1d6 cglscreensub.o
 .debug_line    0x00006e76       0xd8 cglstream.o
 .debug_line    0x00006f4e      0x126 cgltgf.o
 .debug_line    0x00007074      0x10f cglunicode.o
 .debug_line    0x00007183      0x15b glglobal.o
 .debug_line    0x000072de      0x141 glmemtool.o
 .debug_line    0x0000741f      0x291 clibdpg.o
 .debug_line    0x000076b0      0x504 clibmpg.o
 .debug_line    0x00007bb4      0x217 plug_dpg.o
 .debug_line    0x00007dcb      0x14d plug_fpk.o
 .debug_line    0x00007f18      0x530 plug_gmegbs.o
 .debug_line    0x00008448      0x5ba plug_gmensf.o
 .debug_line    0x00008a02      0x163 plug_gsm.o
 .debug_line    0x00008b65      0x139 plug_mp2.o
 .debug_line    0x00008c9e      0x50a plug_ndsrom.o
 .debug_line    0x000091a8      0x45b plug_text.o
 .debug_line    0x00009603      0x31d plug_text_bookmark.o
 .debug_line    0x00009920      0x179 md5c.o
 .debug_line    0x00009a99      0x103 adler32.o
 .debug_line    0x00009b9c      0x122 crc32.o
 .debug_line    0x00009cbe      0x431 deflate.o
 .debug_line    0x0000a0ef      0x33a infback.o
 .debug_line    0x0000a429      0x1e6 inffast.o
 .debug_line    0x0000a60f      0x517 inflate.o
 .debug_line    0x0000ab26      0x148 inftrees.o
 .debug_line    0x0000ac6e      0x469 trees.o
 .debug_line    0x0000b0d7       0x8a zutil.o
 .debug_line    0x0000b161       0xf4 CP15.o
 .debug_line    0x0000b255       0xbb CopyJmp.o
 .debug_line    0x0000b310       0xa7 linkreset_arm9.o
 .debug_line    0x0000b3b7       0xfb glCP15.o
 .debug_line    0x0000b4b2      0x2b0 ../build/gba_nds_fat_2006-02-09_unicode_M3SD_ReadAlignDetect/crc.o
 .debug_line    0x0000b762      0x215 ../build/gba_nds_fat_2006-02-09_unicode_M3SD_ReadAlignDetect/disc_io.o
 .debug_line    0x0000b977       0xec ../build/gba_nds_fat_2006-02-09_unicode_M3SD_ReadAlignDetect/fastreaddata512.o
 .debug_line    0x0000ba63     0x1316 ../build/gba_nds_fat_2006-02-09_unicode_M3SD_ReadAlignDetect/gba_nds_fat.o
 .debug_line    0x0000cd79      0x17a ../build/gba_nds_fat_2006-02-09_unicode_M3SD_ReadAlignDetect/io_DLMS.o
 .debug_line    0x0000cef3      0x45c ../build/gba_nds_fat_2006-02-09_unicode_M3SD_ReadAlignDetect/io_DLMS_asm.o
 .debug_line    0x0000d34f      0x404 ../build/gba_nds_fat_2006-02-09_unicode_M3SD_ReadAlignDetect/io_ewsd.o
 .debug_line    0x0000d753      0xa67 ../build/gba_nds_fat_2006-02-09_unicode_M3SD_ReadAlignDetect/io_ezsd.o
 .debug_line    0x0000e1ba       0x1a ../build/gba_nds_fat_2006-02-09_unicode_M3SD_ReadAlignDetect/io_fcsr.o
 .debug_line    0x0000e1d4      0xe32 ../build/gba_nds_fat_2006-02-09_unicode_M3SD_ReadAlignDetect/io_g6.o
 .debug_line    0x0000f006      0x207 ../build/gba_nds_fat_2006-02-09_unicode_M3SD_ReadAlignDetect/io_m3cf.o
 .debug_line    0x0000f20d      0x2f9 ../build/gba_nds_fat_2006-02-09_unicode_M3SD_ReadAlignDetect/io_m3sd.o
 .debug_line    0x0000f506      0x132 ../build/gba_nds_fat_2006-02-09_unicode_M3SD_ReadAlignDetect/io_m3sd_asm.o
 .debug_line    0x0000f638      0x22b ../build/gba_nds_fat_2006-02-09_unicode_M3SD_ReadAlignDetect/io_mmcf.o
 .debug_line    0x0000f863      0x1bd ../build/gba_nds_fat_2006-02-09_unicode_M3SD_ReadAlignDetect/io_mpcf.o
 .debug_line    0x0000fa20      0x221 ../build/gba_nds_fat_2006-02-09_unicode_M3SD_ReadAlignDetect/io_mpsd.o
 .debug_line    0x0000fc41       0xbf ../build/gba_nds_fat_2006-02-09_unicode_M3SD_ReadAlignDetect/io_mpsd_asm.o
 .debug_line    0x0000fd00      0x540 ../build/gba_nds_fat_2006-02-09_unicode_M3SD_ReadAlignDetect/io_njsd.o
 .debug_line    0x00010240      0x169 ../build/gba_nds_fat_2006-02-09_unicode_M3SD_ReadAlignDetect/io_njsd_common.o
 .debug_line    0x000103a9      0x2d5 ../build/gba_nds_fat_2006-02-09_unicode_M3SD_ReadAlignDetect/io_nmmc.o
 .debug_line    0x0001067e       0xf6 ../build/gba_nds_fat_2006-02-09_unicode_M3SD_ReadAlignDetect/io_sccf.o
 .debug_line    0x00010774      0x17b ../build/gba_nds_fat_2006-02-09_unicode_M3SD_ReadAlignDetect/io_scms.o
 .debug_line    0x000108ef      0x1d2 ../build/gba_nds_fat_2006-02-09_unicode_M3SD_ReadAlignDetect/io_scms_asm.o
 .debug_line    0x00010ac1      0x17b ../build/gba_nds_fat_2006-02-09_unicode_M3SD_ReadAlignDetect/io_scsd.o
 .debug_line    0x00010c3c      0x1d4 ../build/gba_nds_fat_2006-02-09_unicode_M3SD_ReadAlignDetect/io_scsd_asm.o
 .debug_line    0x00010e10      0x179 ../build/gba_nds_fat_2006-02-09_unicode_M3SD_ReadAlignDetect/misc.o
 .debug_line    0x00010f89      0x106 ../build/gba_nds_fat_2006-02-09_unicode_M3SD_ReadAlignDetect/sdbasic.o
 .debug_line    0x0001108f       0xa5 ../build/libmpeg2/alloc.o
 .debug_line    0x00011134       0x1a ../build/libmpeg2/cpu_accel.o
 .debug_line    0x0001114e       0x1a ../build/libmpeg2/cpu_state.o
 .debug_line    0x00011168      0x39b ../build/libmpeg2/decode.o
 .debug_line    0x00011503      0x5c8 ../build/libmpeg2/header.o
 .debug_line    0x00011acb       0xc0 ../build/libmpeg2/idct.o
 .debug_line    0x00011b8b      0x419 ../build/libmpeg2/idct_clip.o
 .debug_line    0x00011fa4      0x408 ../build/libmpeg2/idct_noclip.o
 .debug_line    0x000123ac      0x117 ../build/libmpeg2/motion_comp.o
 .debug_line    0x000124c3      0xa33 ../build/libmpeg2/slice.o
 .debug_line    0x00012ef6      0x3d9 ../build/libgme/Blip_Buffer.o
 .debug_line    0x000132cf      0x45a ../build/libgme/Classic_Emu.o
 .debug_line    0x00013729      0x4f8 ../build/libgme/Dual_Resampler.o
 .debug_line    0x00013c21      0xa32 ../build/libgme/Effects_Buffer.o
 .debug_line    0x00014653      0x4a9 ../build/libgme/Fir_Resampler.o
 .debug_line    0x00014afc      0x58a ../build/libgme/Gb_Apu.o
 .debug_line    0x00015086      0x7c6 ../build/libgme/Gb_Cpu.o
 .debug_line    0x0001584c      0x7df ../build/libgme/Gb_Oscs.o
 .debug_line    0x0001602b      0x655 ../build/libgme/Gbs_Emu.o
 .debug_line    0x00016680      0x6fc ../build/libgme/Multi_Buffer.o
 .debug_line    0x00016d7c      0x2ae ../build/libgme/Music_Emu.o
 .debug_line    0x0001702a      0x7b4 ../build/libgme/Nes_Apu.o
 .debug_line    0x000177de      0x901 ../build/libgme/Nes_Cpu.o
 .debug_line    0x000180df      0x43c ../build/libgme/Nes_Fme7_Apu.o
 .debug_line    0x0001851b      0x420 ../build/libgme/Nes_Namco_Apu.o
 .debug_line    0x0001893b      0xa20 ../build/libgme/Nes_Oscs.o
 .debug_line    0x0001935b      0x575 ../build/libgme/Nes_Vrc6_Apu.o
 .debug_line    0x000198d0      0xa44 ../build/libgme/Nsf_Emu.o
 .debug_line    0x0001a314      0x50d ../build/libgme/abstract_file.o
 .debug_line    0x0001a821       0xff c:/devkitpro/libnds/lib\libnds9.a(keys.o)
 .debug_line    0x0001a920      0x115 c:/devkitpro/libnds/lib\libnds9.a(video.o)
 .debug_line    0x0001aa35      0x15a c:/devkitpro/libnds/lib\libnds9.a(card.o)
 .debug_line    0x0001ab8f      0x191 c:/devkitpro/libnds/lib\libnds9.a(gbfs.o)
 .debug_line    0x0001ad20       0xf3 c:/devkitpro/libnds/lib\libnds9.a(interrupts.o)

.debug_frame    0x00000000     0xaa38
 *(.debug_frame)
 .debug_frame   0x00000000       0xb8 FontPro.o
 .debug_frame   0x000000b8      0x1a8 VRAMTool.o
 .debug_frame   0x00000260       0xd4 _console.o
 .debug_frame   0x00000334       0x40 _consoleWriteLog.o
 .debug_frame   0x00000374      0x15c cardsaver.o
 .debug_frame   0x000004d0      0x2c8 cimfs.o
 .debug_frame   0x00000798      0x144 cstream.o
 .debug_frame   0x000008dc      0x194 cstream_fs.o
 .debug_frame   0x00000a70      0x178 directdisk.o
 .debug_frame   0x00000be8      0x1a4 dll.o
 .debug_frame   0x00000d8c       0x60 dmalink.o
 .debug_frame   0x00000dec      0x2ec dsCard.o
 .debug_frame   0x000010d8      0x190 extmem.o
 .debug_frame   0x00001268       0x50 ez5_language.o
 .debug_frame   0x000012b8      0x3d4 filesys.o
 .debug_frame   0x0000168c       0x68 formdt.o
 .debug_frame   0x000016f4       0xbc imgcalc.o
 .debug_frame   0x000017b0       0xc8 inifile.o
 .debug_frame   0x00001878      0xbc8 main.o
 .debug_frame   0x00002440      0x208 memtool.o
 .debug_frame   0x00002648      0x780 mwin.o
 .debug_frame   0x00002dc8       0xa0 resume.o
 .debug_frame   0x00002e68      0x1a0 shell.o
 .debug_frame   0x00003008      0x164 strpcm.o
 .debug_frame   0x0000316c       0x40 strtool.o
 .debug_frame   0x000031ac      0x118 thumb.o
 .debug_frame   0x000032c4       0xcc unicode.o
 .debug_frame   0x00003390       0x60 zlibhelp.o
 .debug_frame   0x000033f0       0xdc cglb15.o
 .debug_frame   0x000034cc      0x37c cglcanvas.o
 .debug_frame   0x00003848      0x198 cglfont.o
 .debug_frame   0x000039e0      0x1a8 cglscreenmain.o
 .debug_frame   0x00003b88       0xe4 cglscreenoverlay.o
 .debug_frame   0x00003c6c       0xe0 cglscreensub.o
 .debug_frame   0x00003d4c       0xfc cglstream.o
 .debug_frame   0x00003e48       0xe0 cgltgf.o
 .debug_frame   0x00003f28       0xb8 cglunicode.o
 .debug_frame   0x00003fe0       0xac glglobal.o
 .debug_frame   0x0000408c       0xfc glmemtool.o
 .debug_frame   0x00004188      0x174 clibdpg.o
 .debug_frame   0x000042fc      0x2ec clibmpg.o
 .debug_frame   0x000045e8      0x1e0 plug_dpg.o
 .debug_frame   0x000047c8       0x9c plug_fpk.o
 .debug_frame   0x00004864      0x258 plug_gmegbs.o
 .debug_frame   0x00004abc      0x264 plug_gmensf.o
 .debug_frame   0x00004d20      0x104 plug_gsm.o
 .debug_frame   0x00004e24       0xe8 plug_mp2.o
 .debug_frame   0x00004f0c      0x174 plug_ndsrom.o
 .debug_frame   0x00005080      0x140 plug_text.o
 .debug_frame   0x000051c0      0x180 plug_text_bookmark.o
 .debug_frame   0x00005340       0xc4 md5c.o
 .debug_frame   0x00005404       0x4c adler32.o
 .debug_frame   0x00005450       0x94 crc32.o
 .debug_frame   0x000054e4      0x208 deflate.o
 .debug_frame   0x000056ec       0x70 infback.o
 .debug_frame   0x0000575c       0x3c inffast.o
 .debug_frame   0x00005798      0x168 inflate.o
 .debug_frame   0x00005900       0x3c inftrees.o
 .debug_frame   0x0000593c      0x1c8 trees.o
 .debug_frame   0x00005b04       0x70 zutil.o
 .debug_frame   0x00005b74      0x118 ../build/gba_nds_fat_2006-02-09_unicode_M3SD_ReadAlignDetect/crc.o
 .debug_frame   0x00005c8c       0xe4 ../build/gba_nds_fat_2006-02-09_unicode_M3SD_ReadAlignDetect/disc_io.o
 .debug_frame   0x00005d70      0x544 ../build/gba_nds_fat_2006-02-09_unicode_M3SD_ReadAlignDetect/gba_nds_fat.o
 .debug_frame   0x000062b4       0xb0 ../build/gba_nds_fat_2006-02-09_unicode_M3SD_ReadAlignDetect/io_DLMS.o
 .debug_frame   0x00006364      0x1ec ../build/gba_nds_fat_2006-02-09_unicode_M3SD_ReadAlignDetect/io_ewsd.o
 .debug_frame   0x00006550      0x2e8 ../build/gba_nds_fat_2006-02-09_unicode_M3SD_ReadAlignDetect/io_ezsd.o
 .debug_frame   0x00006838      0x344 ../build/gba_nds_fat_2006-02-09_unicode_M3SD_ReadAlignDetect/io_g6.o
 .debug_frame   0x00006b7c       0xb8 ../build/gba_nds_fat_2006-02-09_unicode_M3SD_ReadAlignDetect/io_m3cf.o
 .debug_frame   0x00006c34      0x144 ../build/gba_nds_fat_2006-02-09_unicode_M3SD_ReadAlignDetect/io_m3sd.o
 .debug_frame   0x00006d78       0xb0 ../build/gba_nds_fat_2006-02-09_unicode_M3SD_ReadAlignDetect/io_mmcf.o
 .debug_frame   0x00006e28       0xa0 ../build/gba_nds_fat_2006-02-09_unicode_M3SD_ReadAlignDetect/io_mpcf.o
 .debug_frame   0x00006ec8      0x114 ../build/gba_nds_fat_2006-02-09_unicode_M3SD_ReadAlignDetect/io_mpsd.o
 .debug_frame   0x00006fdc       0xf8 ../build/gba_nds_fat_2006-02-09_unicode_M3SD_ReadAlignDetect/io_njsd.o
 .debug_frame   0x000070d4       0x70 ../build/gba_nds_fat_2006-02-09_unicode_M3SD_ReadAlignDetect/io_njsd_common.o
 .debug_frame   0x00007144      0x174 ../build/gba_nds_fat_2006-02-09_unicode_M3SD_ReadAlignDetect/io_nmmc.o
 .debug_frame   0x000072b8       0x58 ../build/gba_nds_fat_2006-02-09_unicode_M3SD_ReadAlignDetect/io_sccf.o
 .debug_frame   0x00007310       0xb0 ../build/gba_nds_fat_2006-02-09_unicode_M3SD_ReadAlignDetect/io_scms.o
 .debug_frame   0x000073c0       0xb0 ../build/gba_nds_fat_2006-02-09_unicode_M3SD_ReadAlignDetect/io_scsd.o
 .debug_frame   0x00007470       0x78 ../build/gba_nds_fat_2006-02-09_unicode_M3SD_ReadAlignDetect/misc.o
 .debug_frame   0x000074e8       0x80 ../build/gba_nds_fat_2006-02-09_unicode_M3SD_ReadAlignDetect/sdbasic.o
 .debug_frame   0x00007568       0x50 ../build/libmpeg2/alloc.o
 .debug_frame   0x000075b8      0x1bc ../build/libmpeg2/decode.o
 .debug_frame   0x00007774      0x288 ../build/libmpeg2/header.o
 .debug_frame   0x000079fc       0x38 ../build/libmpeg2/idct.o
 .debug_frame   0x00007a34       0x70 ../build/libmpeg2/idct_clip.o
 .debug_frame   0x00007aa4       0x60 ../build/libmpeg2/idct_noclip.o
 .debug_frame   0x00007b04      0x1ec ../build/libmpeg2/motion_comp.o
 .debug_frame   0x00007cf0      0x124 ../build/libmpeg2/slice.o
 .debug_frame   0x00007e14      0x250 ../build/libgme/Blip_Buffer.o
 .debug_frame   0x00008064      0x27c ../build/libgme/Classic_Emu.o
 .debug_frame   0x000082e0      0x1a8 ../build/libgme/Dual_Resampler.o
 .debug_frame   0x00008488      0x378 ../build/libgme/Effects_Buffer.o
 .debug_frame   0x00008800      0x15c ../build/libgme/Fir_Resampler.o
 .debug_frame   0x0000895c      0x1b8 ../build/libgme/Gb_Apu.o
 .debug_frame   0x00008b14      0x104 ../build/libgme/Gb_Cpu.o
 .debug_frame   0x00008c18      0x104 ../build/libgme/Gb_Oscs.o
 .debug_frame   0x00008d1c      0x2f8 ../build/libgme/Gbs_Emu.o
 .debug_frame   0x00009014      0x4c0 ../build/libgme/Multi_Buffer.o
 .debug_frame   0x000094d4      0x108 ../build/libgme/Music_Emu.o
 .debug_frame   0x000095dc      0x1f8 ../build/libgme/Nes_Apu.o
 .debug_frame   0x000097d4      0x100 ../build/libgme/Nes_Cpu.o
 .debug_frame   0x000098d4       0x4c ../build/libgme/Nes_Fme7_Apu.o
 .debug_frame   0x00009920       0xe0 ../build/libgme/Nes_Namco_Apu.o
 .debug_frame   0x00009a00      0x1a4 ../build/libgme/Nes_Oscs.o
 .debug_frame   0x00009ba4      0x1e0 ../build/libgme/Nes_Vrc6_Apu.o
 .debug_frame   0x00009d84      0x3a0 ../build/libgme/Nsf_Emu.o
 .debug_frame   0x0000a124      0x554 ../build/libgme/abstract_file.o
 .debug_frame   0x0000a678       0x6c c:/devkitpro/libnds/lib\libnds9.a(keys.o)
 .debug_frame   0x0000a6e4       0xcc c:/devkitpro/libnds/lib\libnds9.a(video.o)
 .debug_frame   0x0000a7b0      0x114 c:/devkitpro/libnds/lib\libnds9.a(card.o)
 .debug_frame   0x0000a8c4       0xec c:/devkitpro/libnds/lib\libnds9.a(gbfs.o)
 .debug_frame   0x0000a9b0       0x88 c:/devkitpro/libnds/lib\libnds9.a(interrupts.o)

.debug_str      0x00000000    0x16a47
 *(.debug_str)
 .debug_str     0x00000000      0x292 FontPro.o
                                0x2ff (size before relaxing)
 .debug_str     0x00000292      0x2e3 VRAMTool.o
                                0x404 (size before relaxing)
 .debug_str     0x00000575      0x1dc _console.o
                                0x2d0 (size before relaxing)
 .debug_str     0x00000751       0x56 _consoleWriteLog.o
                                0x121 (size before relaxing)
 .debug_str     0x000007a7      0x28c cardsaver.o
                                0x376 (size before relaxing)
 .debug_str     0x00000a33      0x6fe cimfs.o
                                0x8a4 (size before relaxing)
 .debug_str     0x00001131      0x1c2 cstream.o
                                0x307 (size before relaxing)
 .debug_str     0x000012f3      0x169 cstream_fs.o
                                0x2fe (size before relaxing)
 .debug_str     0x0000145c      0x603 directdisk.o
                                0x779 (size before relaxing)
 .debug_str     0x00001a5f      0x6b6 dll.o
                                0xa31 (size before relaxing)
 .debug_str     0x00002115       0xbe dmalink.o
                                0x1ae (size before relaxing)
 .debug_str     0x000021d3      0x290 dsCard.o
                                0x3fa (size before relaxing)
 .debug_str     0x00002463      0x8c4 extmem.o
                                0xcb8 (size before relaxing)
 .debug_str     0x00002d27      0x3df ez5_language.o
                                0x4aa (size before relaxing)
 .debug_str     0x00003106      0x711 filesys.o
                               0x1640 (size before relaxing)
 .debug_str     0x00003817      0x11c formdt.o
                                0x227 (size before relaxing)
 .debug_str     0x00003933      0x1f7 imgcalc.o
                                0x327 (size before relaxing)
 .debug_str     0x00003b2a      0x28d inifile.o
                                0xac6 (size before relaxing)
 .debug_str     0x00003db7     0x2ba6 main.o
                               0x454c (size before relaxing)
 .debug_str     0x0000695d       0xd4 memtool.o
                                0x2a9 (size before relaxing)
 .debug_str     0x00006a31     0x103a mwin.o
                               0x2976 (size before relaxing)
 .debug_str     0x00007a6b       0x40 mwin_color.o
                                0x28e (size before relaxing)
 .debug_str     0x00007aab      0x155 resume.o
                               0x10cf (size before relaxing)
 .debug_str     0x00007c00      0x2f9 shell.o
                                0xadb (size before relaxing)
 .debug_str     0x00007ef9      0x303 strpcm.o
                                0x54f (size before relaxing)
 .debug_str     0x000081fc       0x7f strtool.o
                                0x161 (size before relaxing)
 .debug_str     0x0000827b      0x1e1 thumb.o
                               0x113f (size before relaxing)
 .debug_str     0x0000845c      0x1fc unicode.o
                                0x302 (size before relaxing)
 .debug_str     0x00008658       0xc1 zlibhelp.o
                                0x290 (size before relaxing)
 .debug_str     0x00008719      0x168 cglb15.o
                                0x86a (size before relaxing)
 .debug_str     0x00008881      0x40b cglcanvas.o
                                0xaed (size before relaxing)
 .debug_str     0x00008c8c       0x68 cglfont.o
                                0xac0 (size before relaxing)
 .debug_str     0x00008cf4       0x66 cglscreenmain.o
                                0x95a (size before relaxing)
 .debug_str     0x00008d5a      0x136 cglscreenoverlay.o
                                0x827 (size before relaxing)
 .debug_str     0x00008e90       0x9e cglscreensub.o
                                0x814 (size before relaxing)
 .debug_str     0x00008f2e       0x44 cglstream.o
                                0x29b (size before relaxing)
 .debug_str     0x00008f72      0x108 cgltgf.o
                                0x89d (size before relaxing)
 .debug_str     0x0000907a       0x54 cglunicode.o
                                0x342 (size before relaxing)
 .debug_str     0x000090ce      0x140 glglobal.o
                                0xb88 (size before relaxing)
 .debug_str     0x0000920e      0x193 glmemtool.o
                                0x28b (size before relaxing)
 .debug_str     0x000093a1      0x9ab clibdpg.o
                               0x1344 (size before relaxing)
 .debug_str     0x00009d4c      0x2b4 clibmpg.o
                               0x1b64 (size before relaxing)
 .debug_str     0x0000a000      0x389 plug_dpg.o
                                0xf48 (size before relaxing)
 .debug_str     0x0000a389      0x15a plug_fpk.o
                                0x26c (size before relaxing)
 .debug_str     0x0000a4e3      0xbbc plug_gmegbs.o
                                0xe3a (size before relaxing)
 .debug_str     0x0000b09f      0x3be plug_gmensf.o
                                0xe8f (size before relaxing)
 .debug_str     0x0000b45d      0x1f4 plug_gsm.o
                                0x313 (size before relaxing)
 .debug_str     0x0000b651      0x151 plug_mp2.o
                                0x298 (size before relaxing)
 .debug_str     0x0000b7a2      0x269 plug_ndsrom.o
                                0xc70 (size before relaxing)
 .debug_str     0x0000ba0b      0x30f plug_text.o
                                0xdaa (size before relaxing)
 .debug_str     0x0000bd1a      0x2c7 plug_text_bookmark.o
                                0x591 (size before relaxing)
 .debug_str     0x0000bfe1       0xc0 md5c.o
                                0x17c (size before relaxing)
 .debug_str     0x0000c0a1       0x75 adler32.o
                                0x108 (size before relaxing)
 .debug_str     0x0000c116       0xb7 crc32.o
                                0x191 (size before relaxing)
 .debug_str     0x0000c1cd      0x569 deflate.o
                                0x7be (size before relaxing)
 .debug_str     0x0000c736      0x1c8 infback.o
                                0x467 (size before relaxing)
 .debug_str     0x0000c8fe       0x72 inffast.o
                                0x3f5 (size before relaxing)
 .debug_str     0x0000c970       0xef inflate.o
                                0x4fb (size before relaxing)
 .debug_str     0x0000ca5f       0xaa inftrees.o
                                0x1bc (size before relaxing)
 .debug_str     0x0000cb09      0x27e trees.o
                                0x783 (size before relaxing)
 .debug_str     0x0000cd87       0x77 zutil.o
                                0x158 (size before relaxing)
 .debug_str     0x0000cdfe      0x216 ../build/gba_nds_fat_2006-02-09_unicode_M3SD_ReadAlignDetect/crc.o
                                0x2c4 (size before relaxing)
 .debug_str     0x0000d014      0x135 ../build/gba_nds_fat_2006-02-09_unicode_M3SD_ReadAlignDetect/disc_io.o
                                0x438 (size before relaxing)
 .debug_str     0x0000d149      0x9cc ../build/gba_nds_fat_2006-02-09_unicode_M3SD_ReadAlignDetect/gba_nds_fat.o
                                0xc04 (size before relaxing)
 .debug_str     0x0000db15       0xf9 ../build/gba_nds_fat_2006-02-09_unicode_M3SD_ReadAlignDetect/io_DLMS.o
                                0x32c (size before relaxing)
 .debug_str     0x0000dc0e      0x23b ../build/gba_nds_fat_2006-02-09_unicode_M3SD_ReadAlignDetect/io_ewsd.o
                                0x491 (size before relaxing)
 .debug_str     0x0000de49      0x721 ../build/gba_nds_fat_2006-02-09_unicode_M3SD_ReadAlignDetect/io_ezsd.o
                                0xa33 (size before relaxing)
 .debug_str     0x0000e56a       0x6f ../build/gba_nds_fat_2006-02-09_unicode_M3SD_ReadAlignDetect/io_fcsr.o
                                0x167 (size before relaxing)
 .debug_str     0x0000e5d9      0x4d8 ../build/gba_nds_fat_2006-02-09_unicode_M3SD_ReadAlignDetect/io_g6.o
                                0x75b (size before relaxing)
 .debug_str     0x0000eab1       0xf2 ../build/gba_nds_fat_2006-02-09_unicode_M3SD_ReadAlignDetect/io_m3cf.o
                                0x317 (size before relaxing)
 .debug_str     0x0000eba3      0x194 ../build/gba_nds_fat_2006-02-09_unicode_M3SD_ReadAlignDetect/io_m3sd.o
                                0x3db (size before relaxing)
 .debug_str     0x0000ed37      0x120 ../build/gba_nds_fat_2006-02-09_unicode_M3SD_ReadAlignDetect/io_mmcf.o
                                0x345 (size before relaxing)
 .debug_str     0x0000ee57       0xe8 ../build/gba_nds_fat_2006-02-09_unicode_M3SD_ReadAlignDetect/io_mpcf.o
                                0x312 (size before relaxing)
 .debug_str     0x0000ef3f      0x14e ../build/gba_nds_fat_2006-02-09_unicode_M3SD_ReadAlignDetect/io_mpsd.o
                                0x387 (size before relaxing)
 .debug_str     0x0000f08d      0x238 ../build/gba_nds_fat_2006-02-09_unicode_M3SD_ReadAlignDetect/io_njsd.o
                                0x497 (size before relaxing)
 .debug_str     0x0000f2c5      0x10e ../build/gba_nds_fat_2006-02-09_unicode_M3SD_ReadAlignDetect/io_njsd_common.o
                                0x26c (size before relaxing)
 .debug_str     0x0000f3d3      0x1de ../build/gba_nds_fat_2006-02-09_unicode_M3SD_ReadAlignDetect/io_nmmc.o
                                0x435 (size before relaxing)
 .debug_str     0x0000f5b1       0xbe ../build/gba_nds_fat_2006-02-09_unicode_M3SD_ReadAlignDetect/io_sccf.o
                                0x2cd (size before relaxing)
 .debug_str     0x0000f66f       0xf4 ../build/gba_nds_fat_2006-02-09_unicode_M3SD_ReadAlignDetect/io_scms.o
                                0x322 (size before relaxing)
 .debug_str     0x0000f763       0xf4 ../build/gba_nds_fat_2006-02-09_unicode_M3SD_ReadAlignDetect/io_scsd.o
                                0x322 (size before relaxing)
 .debug_str     0x0000f857       0xfb ../build/gba_nds_fat_2006-02-09_unicode_M3SD_ReadAlignDetect/misc.o
                                0x215 (size before relaxing)
 .debug_str     0x0000f952       0xfc ../build/gba_nds_fat_2006-02-09_unicode_M3SD_ReadAlignDetect/sdbasic.o
                                0x202 (size before relaxing)
 .debug_str     0x0000fa4e      0x146 ../build/libmpeg2/alloc.o
                                0x1f9 (size before relaxing)
 .debug_str     0x0000fb94      0x5a1 ../build/libmpeg2/decode.o
                                0xa84 (size before relaxing)
 .debug_str     0x00010135      0x329 ../build/libmpeg2/header.o
                                0xbf0 (size before relaxing)
 .debug_str     0x0001045e       0x96 ../build/libmpeg2/idct.o
                                0x1a0 (size before relaxing)
 .debug_str     0x000104f4       0xd9 ../build/libmpeg2/idct_clip.o
                                0x215 (size before relaxing)
 .debug_str     0x000105cd       0x84 ../build/libmpeg2/idct_noclip.o
                                0x1ea (size before relaxing)
 .debug_str     0x00010651      0x158 ../build/libmpeg2/motion_comp.o
                                0x25c (size before relaxing)
 .debug_str     0x000107a9      0x399 ../build/libmpeg2/slice.o
                                0x7af (size before relaxing)
 .debug_str     0x00010b42      0x2ca ../build/libgme/Blip_Buffer.o
                                0x916 (size before relaxing)
 .debug_str     0x00010e0c      0x3e1 ../build/libgme/Classic_Emu.o
                                0xd52 (size before relaxing)
 .debug_str     0x000111ed      0x6a8 ../build/libgme/Dual_Resampler.o
                                0xe3e (size before relaxing)
 .debug_str     0x00011895      0x446 ../build/libgme/Effects_Buffer.o
                                0xe35 (size before relaxing)
 .debug_str     0x00011cdb      0x118 ../build/libgme/Fir_Resampler.o
                                0x6f6 (size before relaxing)
 .debug_str     0x00011df3      0x8c1 ../build/libgme/Gb_Apu.o
                               0x117f (size before relaxing)
 .debug_str     0x000126b4      0x3b4 ../build/libgme/Gb_Cpu.o
                                0x5e1 (size before relaxing)
 .debug_str     0x00012a68       0x7b ../build/libgme/Gb_Oscs.o
                               0x114d (size before relaxing)
 .debug_str     0x00012ae3      0x5cd ../build/libgme/Gbs_Emu.o
                               0x1abb (size before relaxing)
 .debug_str     0x000130b0      0x50a ../build/libgme/Multi_Buffer.o
                                0xf3e (size before relaxing)
 .debug_str     0x000135ba      0x211 ../build/libgme/Music_Emu.o
                                0x6ad (size before relaxing)
 .debug_str     0x000137cb      0x88a ../build/libgme/Nes_Apu.o
                               0x1625 (size before relaxing)
 .debug_str     0x00014055      0x4f5 ../build/libgme/Nes_Cpu.o
                                0x805 (size before relaxing)
 .debug_str     0x0001454a      0x275 ../build/libgme/Nes_Fme7_Apu.o
                                0xd72 (size before relaxing)
 .debug_str     0x000147bf      0x4a7 ../build/libgme/Nes_Namco_Apu.o
                                0xdf1 (size before relaxing)
 .debug_str     0x00014c66       0xf5 ../build/libgme/Nes_Oscs.o
                               0x162f (size before relaxing)
 .debug_str     0x00014d5b      0x29d ../build/libgme/Nes_Vrc6_Apu.o
                                0xfc5 (size before relaxing)
 .debug_str     0x00014ff8      0x669 ../build/libgme/Nsf_Emu.o
                               0x2c8c (size before relaxing)
 .debug_str     0x00015661      0x8a9 ../build/libgme/abstract_file.o
                                0xad1 (size before relaxing)
 .debug_str     0x00015f0a       0xf0 c:/devkitpro/libnds/lib\libnds9.a(keys.o)
                                0x197 (size before relaxing)
 .debug_str     0x00015ffa      0x74e c:/devkitpro/libnds/lib\libnds9.a(video.o)
                                0x7e9 (size before relaxing)
 .debug_str     0x00016748       0xe1 c:/devkitpro/libnds/lib\libnds9.a(card.o)
                                0x1d5 (size before relaxing)
 .debug_str     0x00016829      0x178 c:/devkitpro/libnds/lib\libnds9.a(gbfs.o)
                                0x266 (size before relaxing)
 .debug_str     0x000169a1       0xa6 c:/devkitpro/libnds/lib\libnds9.a(interrupts.o)
                                0x13f (size before relaxing)

.debug_loc      0x00000000    0x3453e
 *(.debug_loc)
 .debug_loc     0x00000000      0x605 FontPro.o
 .debug_loc     0x00000605      0x6d8 VRAMTool.o
 .debug_loc     0x00000cdd      0x12b _console.o
 .debug_loc     0x00000e08       0x94 _consoleWriteLog.o
 .debug_loc     0x00000e9c      0x302 cardsaver.o
 .debug_loc     0x0000119e      0xa88 cimfs.o
 .debug_loc     0x00001c26      0x1eb cstream.o
 .debug_loc     0x00001e11      0x32f cstream_fs.o
 .debug_loc     0x00002140      0x745 directdisk.o
 .debug_loc     0x00002885      0x5b8 dll.o
 .debug_loc     0x00002e3d      0xb82 dsCard.o
 .debug_loc     0x000039bf      0x810 extmem.o
 .debug_loc     0x000041cf     0x1164 filesys.o
 .debug_loc     0x00005333      0x1c2 formdt.o
 .debug_loc     0x000054f5      0x12c imgcalc.o
 .debug_loc     0x00005621      0x46d inifile.o
 .debug_loc     0x00005a8e     0x487a main.o
 .debug_loc     0x0000a308      0x617 memtool.o
 .debug_loc     0x0000a91f     0x2a36 mwin.o
 .debug_loc     0x0000d355      0x135 resume.o
 .debug_loc     0x0000d48a      0x7d9 shell.o
 .debug_loc     0x0000dc63      0x2ee strpcm.o
 .debug_loc     0x0000df51       0x8b strtool.o
 .debug_loc     0x0000dfdc      0x3c2 thumb.o
 .debug_loc     0x0000e39e      0x1aa unicode.o
 .debug_loc     0x0000e548       0xf4 zlibhelp.o
 .debug_loc     0x0000e63c      0x18e cglb15.o
 .debug_loc     0x0000e7ca     0x12d2 cglcanvas.o
 .debug_loc     0x0000fa9c      0x5a9 cglfont.o
 .debug_loc     0x00010045      0x358 cglscreenmain.o
 .debug_loc     0x0001039d      0x174 cglscreenoverlay.o
 .debug_loc     0x00010511      0x19a cglscreensub.o
 .debug_loc     0x000106ab      0x10b cglstream.o
 .debug_loc     0x000107b6      0x255 cgltgf.o
 .debug_loc     0x00010a0b      0x140 cglunicode.o
 .debug_loc     0x00010b4b       0x79 glglobal.o
 .debug_loc     0x00010bc4      0x3b2 glmemtool.o
 .debug_loc     0x00010f76      0x444 clibdpg.o
 .debug_loc     0x000113ba     0x19f1 clibmpg.o
 .debug_loc     0x00012dab      0x1f3 plug_dpg.o
 .debug_loc     0x00012f9e      0x1f2 plug_fpk.o
 .debug_loc     0x00013190      0x491 plug_gmegbs.o
 .debug_loc     0x00013621      0x5d5 plug_gmensf.o
 .debug_loc     0x00013bf6      0x10f plug_gsm.o
 .debug_loc     0x00013d05       0xd3 plug_mp2.o
 .debug_loc     0x00013dd8      0x607 plug_ndsrom.o
 .debug_loc     0x000143df     0x116a plug_text.o
 .debug_loc     0x00015549      0x2b0 plug_text_bookmark.o
 .debug_loc     0x000157f9      0x76f md5c.o
 .debug_loc     0x00015f68      0x42e adler32.o
 .debug_loc     0x00016396      0x460 crc32.o
 .debug_loc     0x000167f6      0x9ae deflate.o
 .debug_loc     0x000171a4      0xa77 infback.o
 .debug_loc     0x00017c1b      0x393 inffast.o
 .debug_loc     0x00017fae     0x16c7 inflate.o
 .debug_loc     0x00019675      0x52e inftrees.o
 .debug_loc     0x00019ba3      0xfc4 trees.o
 .debug_loc     0x0001ab67       0x72 zutil.o
 .debug_loc     0x0001abd9      0x669 ../build/gba_nds_fat_2006-02-09_unicode_M3SD_ReadAlignDetect/crc.o
 .debug_loc     0x0001b242      0x10e ../build/gba_nds_fat_2006-02-09_unicode_M3SD_ReadAlignDetect/disc_io.o
 .debug_loc     0x0001b350     0x2a8f ../build/gba_nds_fat_2006-02-09_unicode_M3SD_ReadAlignDetect/gba_nds_fat.o
 .debug_loc     0x0001dddf       0xb4 ../build/gba_nds_fat_2006-02-09_unicode_M3SD_ReadAlignDetect/io_DLMS.o
 .debug_loc     0x0001de93      0x66a ../build/gba_nds_fat_2006-02-09_unicode_M3SD_ReadAlignDetect/io_ewsd.o
 .debug_loc     0x0001e4fd      0xbec ../build/gba_nds_fat_2006-02-09_unicode_M3SD_ReadAlignDetect/io_ezsd.o
 .debug_loc     0x0001f0e9     0x1085 ../build/gba_nds_fat_2006-02-09_unicode_M3SD_ReadAlignDetect/io_g6.o
 .debug_loc     0x0002016e      0x268 ../build/gba_nds_fat_2006-02-09_unicode_M3SD_ReadAlignDetect/io_m3cf.o
 .debug_loc     0x000203d6      0x371 ../build/gba_nds_fat_2006-02-09_unicode_M3SD_ReadAlignDetect/io_m3sd.o
 .debug_loc     0x00020747      0x1ac ../build/gba_nds_fat_2006-02-09_unicode_M3SD_ReadAlignDetect/io_mmcf.o
 .debug_loc     0x000208f3      0x23b ../build/gba_nds_fat_2006-02-09_unicode_M3SD_ReadAlignDetect/io_mpcf.o
 .debug_loc     0x00020b2e      0x17a ../build/gba_nds_fat_2006-02-09_unicode_M3SD_ReadAlignDetect/io_mpsd.o
 .debug_loc     0x00020ca8      0x3e1 ../build/gba_nds_fat_2006-02-09_unicode_M3SD_ReadAlignDetect/io_njsd.o
 .debug_loc     0x00021089      0x1b1 ../build/gba_nds_fat_2006-02-09_unicode_M3SD_ReadAlignDetect/io_njsd_common.o
 .debug_loc     0x0002123a      0x2a9 ../build/gba_nds_fat_2006-02-09_unicode_M3SD_ReadAlignDetect/io_nmmc.o
 .debug_loc     0x000214e3       0x26 ../build/gba_nds_fat_2006-02-09_unicode_M3SD_ReadAlignDetect/io_sccf.o
 .debug_loc     0x00021509       0xb4 ../build/gba_nds_fat_2006-02-09_unicode_M3SD_ReadAlignDetect/io_scms.o
 .debug_loc     0x000215bd       0xb4 ../build/gba_nds_fat_2006-02-09_unicode_M3SD_ReadAlignDetect/io_scsd.o
 .debug_loc     0x00021671       0xa3 ../build/gba_nds_fat_2006-02-09_unicode_M3SD_ReadAlignDetect/misc.o
 .debug_loc     0x00021714       0x13 ../build/gba_nds_fat_2006-02-09_unicode_M3SD_ReadAlignDetect/sdbasic.o
 .debug_loc     0x00021727       0x83 ../build/libmpeg2/alloc.o
 .debug_loc     0x000217aa      0x9bb ../build/libmpeg2/decode.o
 .debug_loc     0x00022165      0xcb3 ../build/libmpeg2/header.o
 .debug_loc     0x00022e18       0x13 ../build/libmpeg2/idct.o
 .debug_loc     0x00022e2b      0x82f ../build/libmpeg2/idct_clip.o
 .debug_loc     0x0002365a      0x88d ../build/libmpeg2/idct_noclip.o
 .debug_loc     0x00023ee7      0x6a4 ../build/libmpeg2/motion_comp.o
 .debug_loc     0x0002458b     0x25e0 ../build/libmpeg2/slice.o
 .debug_loc     0x00026b6b      0xcf5 ../build/libgme/Blip_Buffer.o
 .debug_loc     0x00027860      0x4db ../build/libgme/Classic_Emu.o
 .debug_loc     0x00027d3b      0x5d9 ../build/libgme/Dual_Resampler.o
 .debug_loc     0x00028314      0x9fd ../build/libgme/Effects_Buffer.o
 .debug_loc     0x00028d11      0x5de ../build/libgme/Fir_Resampler.o
 .debug_loc     0x000292ef      0x9d8 ../build/libgme/Gb_Apu.o
 .debug_loc     0x00029cc7     0x2566 ../build/libgme/Gb_Cpu.o
 .debug_loc     0x0002c22d      0xd71 ../build/libgme/Gb_Oscs.o
 .debug_loc     0x0002cf9e      0x773 ../build/libgme/Gbs_Emu.o
 .debug_loc     0x0002d711      0x65e ../build/libgme/Multi_Buffer.o
 .debug_loc     0x0002dd6f      0x11a ../build/libgme/Music_Emu.o
 .debug_loc     0x0002de89      0xed2 ../build/libgme/Nes_Apu.o
 .debug_loc     0x0002ed5b     0x1214 ../build/libgme/Nes_Cpu.o
 .debug_loc     0x0002ff6f      0x430 ../build/libgme/Nes_Fme7_Apu.o
 .debug_loc     0x0003039f      0x3c6 ../build/libgme/Nes_Namco_Apu.o
 .debug_loc     0x00030765     0x179e ../build/libgme/Nes_Oscs.o
 .debug_loc     0x00031f03      0x90d ../build/libgme/Nes_Vrc6_Apu.o
 .debug_loc     0x00032810      0xccf ../build/libgme/Nsf_Emu.o
 .debug_loc     0x000334df      0x79e ../build/libgme/abstract_file.o
 .debug_loc     0x00033c7d      0x10a c:/devkitpro/libnds/lib\libnds9.a(video.o)
 .debug_loc     0x00033d87      0x3b6 c:/devkitpro/libnds/lib\libnds9.a(card.o)
 .debug_loc     0x0003413d      0x386 c:/devkitpro/libnds/lib\libnds9.a(gbfs.o)
 .debug_loc     0x000344c3       0x7b c:/devkitpro/libnds/lib\libnds9.a(interrupts.o)

.debug_macinfo
 *(.debug_macinfo)

.debug_weaknames
 *(.debug_weaknames)

.debug_funcnames
 *(.debug_funcnames)

.debug_typenames
 *(.debug_typenames)

.debug_varnames
 *(.debug_varnames)

.stack          0x00080000        0x0
                0x00080000                _stack = .
 *(.stack)
LOAD c:/devkitpro/devkitarm/bin/../lib/gcc/arm-elf/4.0.2/../../../../arm-elf/lib/interwork/ds_arm9_crt0.o
LOAD c:/devkitpro/devkitarm/bin/../lib/gcc/arm-elf/4.0.2/interwork/crti.o
LOAD c:/devkitpro/devkitarm/bin/../lib/gcc/arm-elf/4.0.2/interwork/crtbegin.o
LOAD BootStrap_M3_pepsiman_m3powerloader_20060117.bin.o
LOAD BootStrap_SC.bin.o
LOAD IMFSROM.bin.o
LOAD _console_font_fixed6x6.bin.o
LOAD cp0.glf.bin.o
LOAD cp0.glu.bin.o
LOAD FontPro.o
LOAD VRAMTool.o
LOAD _console.o
LOAD _consoleWriteLog.o
LOAD cardsaver.o
LOAD cimfs.o
LOAD cstream.o
LOAD cstream_fs.o
LOAD directdisk.o
LOAD dll.o
LOAD dmalink.o
LOAD dsCard.o
LOAD extmem.o
LOAD ez5_language.o
LOAD filesys.o
LOAD formdt.o
LOAD imgcalc.o
LOAD inifile.o
LOAD main.o
LOAD memtool.o
LOAD mwin.o
LOAD mwin_color.o
LOAD resume.o
LOAD shell.o
LOAD strpcm.o
LOAD strtool.o
LOAD thumb.o
LOAD unicode.o
LOAD zlibhelp.o
LOAD cglb15.o
LOAD cglcanvas.o
LOAD cglfont.o
LOAD cglscreenmain.o
LOAD cglscreenoverlay.o
LOAD cglscreensub.o
LOAD cglstream.o
LOAD cgltgf.o
LOAD cglunicode.o
LOAD glglobal.o
LOAD glmemtool.o
LOAD clibdpg.o
LOAD clibmpg.o
LOAD plug_dpg.o
LOAD plug_fpk.o
LOAD plug_gmegbs.o
LOAD plug_gmensf.o
LOAD plug_gsm.o
LOAD plug_mp2.o
LOAD plug_ndsrom.o
LOAD plug_text.o
LOAD plug_text_bookmark.o
LOAD md5c.o
LOAD adler32.o
LOAD crc32.o
LOAD deflate.o
LOAD infback.o
LOAD inffast.o
LOAD inflate.o
LOAD inftrees.o
LOAD trees.o
LOAD zutil.o
LOAD CP15.o
LOAD CopyJmp.o
LOAD linkreset_arm9.o
LOAD glCP15.o
LOAD ../build/gba_nds_fat_2006-02-09_unicode_M3SD_ReadAlignDetect/crc.o
LOAD ../build/gba_nds_fat_2006-02-09_unicode_M3SD_ReadAlignDetect/disc_io.o
LOAD ../build/gba_nds_fat_2006-02-09_unicode_M3SD_ReadAlignDetect/fastreaddata512.o
LOAD ../build/gba_nds_fat_2006-02-09_unicode_M3SD_ReadAlignDetect/gba_nds_fat.o
LOAD ../build/gba_nds_fat_2006-02-09_unicode_M3SD_ReadAlignDetect/io_DLMS.o
LOAD ../build/gba_nds_fat_2006-02-09_unicode_M3SD_ReadAlignDetect/io_DLMS_asm.o
LOAD ../build/gba_nds_fat_2006-02-09_unicode_M3SD_ReadAlignDetect/io_ewsd.o
LOAD ../build/gba_nds_fat_2006-02-09_unicode_M3SD_ReadAlignDetect/io_ezsd.o
LOAD ../build/gba_nds_fat_2006-02-09_unicode_M3SD_ReadAlignDetect/io_fcsr.o
LOAD ../build/gba_nds_fat_2006-02-09_unicode_M3SD_ReadAlignDetect/io_g6.o
LOAD ../build/gba_nds_fat_2006-02-09_unicode_M3SD_ReadAlignDetect/io_m3cf.o
LOAD ../build/gba_nds_fat_2006-02-09_unicode_M3SD_ReadAlignDetect/io_m3sd.o
LOAD ../build/gba_nds_fat_2006-02-09_unicode_M3SD_ReadAlignDetect/io_m3sd_asm.o
LOAD ../build/gba_nds_fat_2006-02-09_unicode_M3SD_ReadAlignDetect/io_mmcf.o
LOAD ../build/gba_nds_fat_2006-02-09_unicode_M3SD_ReadAlignDetect/io_mpcf.o
LOAD ../build/gba_nds_fat_2006-02-09_unicode_M3SD_ReadAlignDetect/io_mpsd.o
LOAD ../build/gba_nds_fat_2006-02-09_unicode_M3SD_ReadAlignDetect/io_mpsd_asm.o
LOAD ../build/gba_nds_fat_2006-02-09_unicode_M3SD_ReadAlignDetect/io_njsd.o
LOAD ../build/gba_nds_fat_2006-02-09_unicode_M3SD_ReadAlignDetect/io_njsd_common.o
LOAD ../build/gba_nds_fat_2006-02-09_unicode_M3SD_ReadAlignDetect/io_nmmc.o
LOAD ../build/gba_nds_fat_2006-02-09_unicode_M3SD_ReadAlignDetect/io_sccf.o
LOAD ../build/gba_nds_fat_2006-02-09_unicode_M3SD_ReadAlignDetect/io_scms.o
LOAD ../build/gba_nds_fat_2006-02-09_unicode_M3SD_ReadAlignDetect/io_scms_asm.o
LOAD ../build/gba_nds_fat_2006-02-09_unicode_M3SD_ReadAlignDetect/io_scsd.o
LOAD ../build/gba_nds_fat_2006-02-09_unicode_M3SD_ReadAlignDetect/io_scsd_asm.o
LOAD ../build/gba_nds_fat_2006-02-09_unicode_M3SD_ReadAlignDetect/misc.o
LOAD ../build/gba_nds_fat_2006-02-09_unicode_M3SD_ReadAlignDetect/sdbasic.o
LOAD ../build/libmpeg2/alloc.o
LOAD ../build/libmpeg2/cpu_accel.o
LOAD ../build/libmpeg2/cpu_state.o
LOAD ../build/libmpeg2/decode.o
LOAD ../build/libmpeg2/header.o
LOAD ../build/libmpeg2/idct.o
LOAD ../build/libmpeg2/idct_clip.o
LOAD ../build/libmpeg2/idct_noclip.o
LOAD ../build/libmpeg2/motion_comp.o
LOAD ../build/libmpeg2/slice.o
LOAD ../build/libgme/Blip_Buffer.o
LOAD ../build/libgme/Classic_Emu.o
LOAD ../build/libgme/Dual_Resampler.o
LOAD ../build/libgme/Effects_Buffer.o
LOAD ../build/libgme/Fir_Resampler.o
LOAD ../build/libgme/Gb_Apu.o
LOAD ../build/libgme/Gb_Cpu.o
LOAD ../build/libgme/Gb_Oscs.o
LOAD ../build/libgme/Gbs_Emu.o
LOAD ../build/libgme/Multi_Buffer.o
LOAD ../build/libgme/Music_Emu.o
LOAD ../build/libgme/Nes_Apu.o
LOAD ../build/libgme/Nes_Cpu.o
LOAD ../build/libgme/Nes_Fme7_Apu.o
LOAD ../build/libgme/Nes_Namco_Apu.o
LOAD ../build/libgme/Nes_Oscs.o
LOAD ../build/libgme/Nes_Vrc6_Apu.o
LOAD ../build/libgme/Nsf_Emu.o
LOAD ../build/libgme/abstract_file.o
LOAD c:/devkitpro/libnds/lib\libnds9.a
LOAD c:/devkitpro/devkitarm/bin/../lib/gcc/arm-elf/4.0.2/../../../../arm-elf/lib/interwork\libstdc++.a
LOAD c:/devkitpro/devkitarm/bin/../lib/gcc/arm-elf/4.0.2/../../../../arm-elf/lib/interwork\libm.a
LOAD c:/devkitpro/devkitarm/bin/../lib/gcc/arm-elf/4.0.2/interwork\libgcc.a
LOAD c:/devkitpro/devkitarm/bin/../lib/gcc/arm-elf/4.0.2/../../../../arm-elf/lib/interwork\libg.a
LOAD c:/devkitpro/devkitarm/bin/../lib/gcc/arm-elf/4.0.2/../../../../arm-elf/lib/interwork\libc.a
LOAD c:/devkitpro/devkitarm/bin/../lib/gcc/arm-elf/4.0.2/interwork\libgcc.a
START GROUP
LOAD c:/devkitpro/devkitarm/bin/../lib/gcc/arm-elf/4.0.2/../../../../arm-elf/lib/interwork\libsysbase.a
LOAD c:/devkitpro/devkitarm/bin/../lib/gcc/arm-elf/4.0.2/../../../../arm-elf/lib/interwork\libc.a
END GROUP
LOAD c:/devkitpro/devkitarm/bin/../lib/gcc/arm-elf/4.0.2/interwork/crtend.o
LOAD c:/devkitpro/devkitarm/bin/../lib/gcc/arm-elf/4.0.2/interwork/crtn.o
OUTPUT(d:/EZ5//moonshell151_src_EZ5/arm9/arm9.elf elf32-littlearm)

.debug_ranges   0x00000000     0xc408
 .debug_ranges  0x00000000      0x150 FontPro.o
 .debug_ranges  0x00000150      0x1c8 VRAMTool.o
 .debug_ranges  0x00000318       0x38 _console.o
 .debug_ranges  0x00000350       0x20 _consoleWriteLog.o
 .debug_ranges  0x00000370       0x90 cardsaver.o
 .debug_ranges  0x00000400      0x2f0 cimfs.o
 .debug_ranges  0x000006f0       0x70 cstream.o
 .debug_ranges  0x00000760       0x88 cstream_fs.o
 .debug_ranges  0x000007e8      0x140 directdisk.o
 .debug_ranges  0x00000928      0x1e8 dll.o
 .debug_ranges  0x00000b10       0x18 dmalink.o
 .debug_ranges  0x00000b28      0x438 dsCard.o
 .debug_ranges  0x00000f60      0x1f8 extmem.o
 .debug_ranges  0x00001158      0x578 filesys.o
 .debug_ranges  0x000016d0       0x58 formdt.o
 .debug_ranges  0x00001728       0x80 imgcalc.o
 .debug_ranges  0x000017a8      0x298 inifile.o
 .debug_ranges  0x00001a40     0x11f0 main.o
 .debug_ranges  0x00002c30      0x168 memtool.o
 .debug_ranges  0x00002d98      0xb70 mwin.o
 .debug_ranges  0x00003908       0x60 resume.o
 .debug_ranges  0x00003968      0x238 shell.o
 .debug_ranges  0x00003ba0       0x88 strpcm.o
 .debug_ranges  0x00003c28      0x160 thumb.o
 .debug_ranges  0x00003d88       0x18 unicode.o
 .debug_ranges  0x00003da0       0x40 zlibhelp.o
 .debug_ranges  0x00003de0       0x30 cglb15.o
 .debug_ranges  0x00003e10      0x258 cglcanvas.o
 .debug_ranges  0x00004068      0x1c8 cglfont.o
 .debug_ranges  0x00004230       0x88 cglscreenmain.o
 .debug_ranges  0x000042b8       0x88 cglscreenoverlay.o
 .debug_ranges  0x00004340       0x68 cglscreensub.o
 .debug_ranges  0x000043a8       0xe0 cgltgf.o
 .debug_ranges  0x00004488       0x30 cglunicode.o
 .debug_ranges  0x000044b8       0x18 glglobal.o
 .debug_ranges  0x000044d0       0xb0 glmemtool.o
 .debug_ranges  0x00004580       0x48 clibdpg.o
 .debug_ranges  0x000045c8      0xd70 clibmpg.o
 .debug_ranges  0x00005338       0x28 plug_dpg.o
 .debug_ranges  0x00005360       0x38 plug_fpk.o
 .debug_ranges  0x00005398       0xe0 plug_gmegbs.o
 .debug_ranges  0x00005478      0x138 plug_gmensf.o
 .debug_ranges  0x000055b0       0x50 plug_gsm.o
 .debug_ranges  0x00005600       0x18 plug_mp2.o
 .debug_ranges  0x00005618      0x1a0 plug_ndsrom.o
 .debug_ranges  0x000057b8      0x388 plug_text.o
 .debug_ranges  0x00005b40      0x140 plug_text_bookmark.o
 .debug_ranges  0x00005c80       0x30 crc32.o
 .debug_ranges  0x00005cb0       0xb8 deflate.o
 .debug_ranges  0x00005d68       0x38 infback.o
 .debug_ranges  0x00005da0       0x38 inflate.o
 .debug_ranges  0x00005dd8      0x550 trees.o
 .debug_ranges  0x00006328      0x130 ../build/gba_nds_fat_2006-02-09_unicode_M3SD_ReadAlignDetect/crc.o
 .debug_ranges  0x00006458      0x340 ../build/gba_nds_fat_2006-02-09_unicode_M3SD_ReadAlignDetect/gba_nds_fat.o
 .debug_ranges  0x00006798       0xb0 ../build/gba_nds_fat_2006-02-09_unicode_M3SD_ReadAlignDetect/io_ewsd.o
 .debug_ranges  0x00006848      0x328 ../build/gba_nds_fat_2006-02-09_unicode_M3SD_ReadAlignDetect/io_ezsd.o
 .debug_ranges  0x00006b70      0x508 ../build/gba_nds_fat_2006-02-09_unicode_M3SD_ReadAlignDetect/io_g6.o
 .debug_ranges  0x00007078       0x38 ../build/gba_nds_fat_2006-02-09_unicode_M3SD_ReadAlignDetect/io_m3cf.o
 .debug_ranges  0x000070b0       0x58 ../build/gba_nds_fat_2006-02-09_unicode_M3SD_ReadAlignDetect/io_m3sd.o
 .debug_ranges  0x00007108       0x88 ../build/gba_nds_fat_2006-02-09_unicode_M3SD_ReadAlignDetect/io_mmcf.o
 .debug_ranges  0x00007190       0x18 ../build/gba_nds_fat_2006-02-09_unicode_M3SD_ReadAlignDetect/io_mpcf.o
 .debug_ranges  0x000071a8       0x38 ../build/gba_nds_fat_2006-02-09_unicode_M3SD_ReadAlignDetect/io_mpsd.o
 .debug_ranges  0x000071e0       0xe0 ../build/gba_nds_fat_2006-02-09_unicode_M3SD_ReadAlignDetect/io_njsd.o
 .debug_ranges  0x000072c0       0x48 ../build/gba_nds_fat_2006-02-09_unicode_M3SD_ReadAlignDetect/io_nmmc.o
 .debug_ranges  0x00007308       0x18 ../build/gba_nds_fat_2006-02-09_unicode_M3SD_ReadAlignDetect/io_sccf.o
 .debug_ranges  0x00007320       0x18 ../build/gba_nds_fat_2006-02-09_unicode_M3SD_ReadAlignDetect/io_scms.o
 .debug_ranges  0x00007338       0x18 ../build/gba_nds_fat_2006-02-09_unicode_M3SD_ReadAlignDetect/io_scsd.o
 .debug_ranges  0x00007350       0x18 ../build/libmpeg2/alloc.o
 .debug_ranges  0x00007368      0x200 ../build/libmpeg2/decode.o
 .debug_ranges  0x00007568      0x120 ../build/libmpeg2/header.o
 .debug_ranges  0x00007688      0x538 ../build/libmpeg2/idct_clip.o
 .debug_ranges  0x00007bc0      0x500 ../build/libmpeg2/idct_noclip.o
 .debug_ranges  0x000080c0      0x5a0 ../build/libmpeg2/slice.o
 .debug_ranges  0x00008660      0x3f0 ../build/libgme/Blip_Buffer.o
 .debug_ranges  0x00008a50       0x90 ../build/libgme/Classic_Emu.o
 .debug_ranges  0x00008ae0      0x150 ../build/libgme/Dual_Resampler.o
 .debug_ranges  0x00008c30      0x248 ../build/libgme/Effects_Buffer.o
 .debug_ranges  0x00008e78      0x150 ../build/libgme/Fir_Resampler.o
 .debug_ranges  0x00008fc8      0x3d8 ../build/libgme/Gb_Apu.o
 .debug_ranges  0x000093a0      0x208 ../build/libgme/Gb_Cpu.o
 .debug_ranges  0x000095a8      0x8e8 ../build/libgme/Gb_Oscs.o
 .debug_ranges  0x00009e90      0x140 ../build/libgme/Gbs_Emu.o
 .debug_ranges  0x00009fd0       0xf0 ../build/libgme/Multi_Buffer.o
 .debug_ranges  0x0000a0c0       0x40 ../build/libgme/Music_Emu.o
 .debug_ranges  0x0000a100      0x618 ../build/libgme/Nes_Apu.o
 .debug_ranges  0x0000a718      0x240 ../build/libgme/Nes_Cpu.o
 .debug_ranges  0x0000a958      0x3d0 ../build/libgme/Nes_Fme7_Apu.o
 .debug_ranges  0x0000ad28      0x230 ../build/libgme/Nes_Namco_Apu.o
 .debug_ranges  0x0000af58      0xd28 ../build/libgme/Nes_Oscs.o
 .debug_ranges  0x0000bc80      0x3c0 ../build/libgme/Nes_Vrc6_Apu.o
 .debug_ranges  0x0000c040      0x308 ../build/libgme/Nsf_Emu.o
 .debug_ranges  0x0000c348       0xc0 ../build/libgme/abstract_file.o
